# SymbolsHelper-Confirmed: 0.4.0 amd64 i386
libkgapi.so.0 libkgapi0 #MINVER#
 _ZN5KGAPI12FetchListJob10setServiceERK7QString@Base 0.4.0
 _ZN5KGAPI12FetchListJob11qt_metacallEN11QMetaObject4CallEiPPv@Base 0.4.0
 _ZN5KGAPI12FetchListJob11qt_metacastEPKc@Base 0.4.0
 _ZN5KGAPI12FetchListJob14setAccountNameERK7QString@Base 0.4.0
 _ZN5KGAPI12FetchListJob16staticMetaObjectE@Base 0.4.0
 _ZN5KGAPI12FetchListJob5startEv@Base 0.4.0
 _ZN5KGAPI12FetchListJob6setUrlERK4QUrl@Base 0.4.0
 _ZN5KGAPI12FetchListJobC1ERK4QUrlRK7QStringS6_@Base 0.4.0
 _ZN5KGAPI12FetchListJobC1ERKS0_@Base 0.4.0
 _ZN5KGAPI12FetchListJobC2ERK4QUrlRK7QStringS6_@Base 0.4.0
 _ZN5KGAPI12FetchListJobC2ERKS0_@Base 0.4.0
 _ZN5KGAPI12FetchListJobD0Ev@Base 0.4.0
 _ZN5KGAPI12FetchListJobD1Ev@Base 0.4.0
 _ZN5KGAPI12FetchListJobD2Ev@Base 0.4.0
 _ZN5KGAPI13AccessManager11qt_metacallEN11QMetaObject4CallEiPPv@Base 0.4.0
 _ZN5KGAPI13AccessManager11qt_metacastEPKc@Base 0.4.0
 _ZN5KGAPI13AccessManager11sendRequestEPNS_7RequestE@Base 0.4.0
 _ZN5KGAPI13AccessManager12queueRequestEPNS_7RequestE@Base 0.4.0
 _ZN5KGAPI13AccessManager13replyReceivedEPNS_5ReplyE@Base 0.4.0
 _ZN5KGAPI13AccessManager15requestFinishedEPNS_7RequestE@Base 0.4.0
 _ZN5KGAPI13AccessManager15requestProgressEPNS_7RequestEii@Base 0.4.0
 _ZN5KGAPI13AccessManager16staticMetaObjectE@Base 0.4.0
 _ZN5KGAPI13AccessManager19RFC3339StringToDateERK7QString@Base 0.4.0
 _ZN5KGAPI13AccessManager19dateToRFC3339StringERK9KDateTime@Base 0.4.0
 _ZN5KGAPI13AccessManager5errorENS_5ErrorERK7QString@Base 0.4.0
 _ZN5KGAPI13AccessManagerC1Ev@Base 0.4.0
 _ZN5KGAPI13AccessManagerC2Ev@Base 0.4.0
 _ZN5KGAPI13AccessManagerD0Ev@Base 0.4.0
 _ZN5KGAPI13AccessManagerD1Ev@Base 0.4.0
 _ZN5KGAPI13AccessManagerD2Ev@Base 0.4.0
 _ZN5KGAPI2Ui10AuthWidget10setAccountER14QSharedPointerINS_7AccountEE@Base 0.4.0
 _ZN5KGAPI2Ui10AuthWidget11qt_metacallEN11QMetaObject4CallEiPPv@Base 0.4.0
 _ZN5KGAPI2Ui10AuthWidget11qt_metacastEPKc@Base 0.4.0
 _ZN5KGAPI2Ui10AuthWidget11setPasswordERK7QString@Base 0.4.0
 _ZN5KGAPI2Ui10AuthWidget11setUsernameERK7QString@Base 0.4.0
 _ZN5KGAPI2Ui10AuthWidget12authenticateEv@Base 0.4.0
 _ZN5KGAPI2Ui10AuthWidget13authenticatedER14QSharedPointerINS_7AccountEE@Base 0.4.0
 _ZN5KGAPI2Ui10AuthWidget16clearCredentialsEv@Base 0.4.0
 _ZN5KGAPI2Ui10AuthWidget16staticMetaObjectE@Base 0.4.0
 _ZN5KGAPI2Ui10AuthWidget18setShowProgressBarEb@Base 0.4.0
 _ZN5KGAPI2Ui10AuthWidget5errorENS_5ErrorERK7QString@Base 0.4.0
 _ZN5KGAPI2Ui10AuthWidget8progressENS1_8ProgressE@Base 0.4.0
 _ZN5KGAPI2Ui10AuthWidgetC1EP7QWidget@Base 0.4.0
 _ZN5KGAPI2Ui10AuthWidgetC2EP7QWidget@Base 0.4.0
 _ZN5KGAPI2Ui10AuthWidgetD0Ev@Base 0.4.0
 _ZN5KGAPI2Ui10AuthWidgetD1Ev@Base 0.4.0
 _ZN5KGAPI2Ui10AuthWidgetD2Ev@Base 0.4.0
 _ZN5KGAPI2Ui13AccountsCombo11qt_metacallEN11QMetaObject4CallEiPPv@Base 0.4.0
 _ZN5KGAPI2Ui13AccountsCombo11qt_metacastEPKc@Base 0.4.0
 _ZN5KGAPI2Ui13AccountsCombo16staticMetaObjectE@Base 0.4.0
 _ZN5KGAPI2Ui13AccountsCombo6reloadEv@Base 0.4.0
 _ZN5KGAPI2Ui13AccountsComboC1EP7QWidget@Base 0.4.0
 _ZN5KGAPI2Ui13AccountsComboC2EP7QWidget@Base 0.4.0
 _ZN5KGAPI2Ui13AccountsComboD0Ev@Base 0.4.0
 _ZN5KGAPI2Ui13AccountsComboD1Ev@Base 0.4.0
 _ZN5KGAPI2Ui13AccountsComboD2Ev@Base 0.4.0
 _ZN5KGAPI4Auth10getAccountERK7QString@Base 0.4.0
 _ZN5KGAPI4Auth11getAccountsEv@Base 0.4.0
 _ZN5KGAPI4Auth11qt_metacallEN11QMetaObject4CallEiPPv@Base 0.4.0
 _ZN5KGAPI4Auth11qt_metacastEPKc@Base 0.4.0
 _ZN5KGAPI4Auth11setPasswordERK7QString@Base 0.4.0
 _ZN5KGAPI4Auth11setUsernameERK7QString@Base 0.4.0
 _ZN5KGAPI4Auth12authenticateER14QSharedPointerINS_7AccountEEb@Base 0.4.0
 _ZN5KGAPI4Auth12storeAccountERK14QSharedPointerINS_7AccountEE@Base 0.4.0
 _ZN5KGAPI4Auth13authenticatedER14QSharedPointerINS_7AccountEE@Base 0.4.0
 _ZN5KGAPI4Auth16clearCredentialsEv@Base 0.4.0
 _ZN5KGAPI4Auth16setKWalletFolderERK7QString@Base 0.4.0
 _ZN5KGAPI4Auth16staticMetaObjectE@Base 0.4.0
 _ZN5KGAPI4Auth18setDialogAutoCloseEb@Base 0.4.0
 _ZN5KGAPI4Auth22authenticateWithWidgetER14QSharedPointerINS_7AccountEEb@Base 0.4.0
 _ZN5KGAPI4Auth4initERK7QStringS3_S3_@Base 0.4.0
 _ZN5KGAPI4Auth5errorENS_5ErrorE7QString@Base 0.4.0
 _ZN5KGAPI4Auth6revokeER14QSharedPointerINS_7AccountEE@Base 0.4.0
 _ZN5KGAPI4Auth8instanceEv@Base 0.4.0
 _ZN5KGAPI4AuthC1Ev@Base 0.4.0
 _ZN5KGAPI4AuthC2Ev@Base 0.4.0
 _ZN5KGAPI4AuthD0Ev@Base 0.4.0
 _ZN5KGAPI4AuthD1Ev@Base 0.4.0
 _ZN5KGAPI4AuthD2Ev@Base 0.4.0
 _ZN5KGAPI5Reply5abortEv@Base 0.4.0
 _ZN5KGAPI5Reply8readDataEPcx@Base 0.4.0
 _ZN5KGAPI5ReplyC1ENS_7Request11RequestTypeENS_5ErrorERK7QStringRK5QListIPNS_6ObjectEEPS1_RK10QByteArray@Base 0.4.0
 _ZN5KGAPI5ReplyC2ENS_7Request11RequestTypeENS_5ErrorERK7QStringRK5QListIPNS_6ObjectEEPS1_RK10QByteArray@Base 0.4.0
 _ZN5KGAPI5ReplyD0Ev@Base 0.4.0
 _ZN5KGAPI5ReplyD1Ev@Base 0.4.0
 _ZN5KGAPI5ReplyD2Ev@Base 0.4.0
 _ZN5KGAPI6Object7setEtagERK7QString@Base 0.4.0
 _ZN5KGAPI6ObjectC1ERKS0_@Base 0.4.0
 _ZN5KGAPI6ObjectC1Ev@Base 0.4.0
 _ZN5KGAPI6ObjectC2ERKS0_@Base 0.4.0
 _ZN5KGAPI6ObjectC2Ev@Base 0.4.0
 _ZN5KGAPI6ObjectD0Ev@Base 0.4.0
 _ZN5KGAPI6ObjectD1Ev@Base 0.4.0
 _ZN5KGAPI6ObjectD2Ev@Base 0.4.0
 _ZN5KGAPI7Account11removeScopeERK4QUrl@Base 0.4.0
 _ZN5KGAPI7Account14setAccessTokenERK7QString@Base 0.4.0
 _ZN5KGAPI7Account14setAccountNameERK7QString@Base 0.4.0
 _ZN5KGAPI7Account15setRefreshTokenERK7QString@Base 0.4.0
 _ZN5KGAPI7Account8addScopeERK4QUrl@Base 0.4.0
 _ZN5KGAPI7Account9setScopesERK5QListI4QUrlE@Base 0.4.0
 _ZN5KGAPI7AccountC1ERK7QStringS3_S3_RK5QListI4QUrlE@Base 0.4.0
 _ZN5KGAPI7AccountC1ERKS0_@Base 0.4.0
 _ZN5KGAPI7AccountC1Ev@Base 0.4.0
 _ZN5KGAPI7AccountC2ERK7QStringS3_S3_RK5QListI4QUrlE@Base 0.4.0
 _ZN5KGAPI7AccountC2ERKS0_@Base 0.4.0
 _ZN5KGAPI7AccountC2Ev@Base 0.4.0
 _ZN5KGAPI7AccountD0Ev@Base 0.4.0
 _ZN5KGAPI7AccountD1Ev@Base 0.4.0
 _ZN5KGAPI7AccountD2Ev@Base 0.4.0
 _ZN5KGAPI7Objects11AccountInfo11setBirthdayERK7QString@Base 0.4.0
 _ZN5KGAPI7Objects11AccountInfo11setPhotoUrlERK7QString@Base 0.4.0
 _ZN5KGAPI7Objects11AccountInfo11setTimezoneERK7QString@Base 0.4.0
 _ZN5KGAPI7Objects11AccountInfo12setGivenNameERK7QString@Base 0.4.0
 _ZN5KGAPI7Objects11AccountInfo13setFamilyNameERK7QString@Base 0.4.0
 _ZN5KGAPI7Objects11AccountInfo16setVerifiedEmailEb@Base 0.4.0
 _ZN5KGAPI7Objects11AccountInfo5setIdERK7QString@Base 0.4.0
 _ZN5KGAPI7Objects11AccountInfo7setLinkERK7QString@Base 0.4.0
 _ZN5KGAPI7Objects11AccountInfo7setNameERK7QString@Base 0.4.0
 _ZN5KGAPI7Objects11AccountInfo8setEmailERK7QString@Base 0.4.0
 _ZN5KGAPI7Objects11AccountInfo9setGenderERK7QString@Base 0.4.0
 _ZN5KGAPI7Objects11AccountInfo9setLocaleERK7QString@Base 0.4.0
 _ZN5KGAPI7Objects11AccountInfoC1ERKS1_@Base 0.4.0
 _ZN5KGAPI7Objects11AccountInfoC1Ev@Base 0.4.0
 _ZN5KGAPI7Objects11AccountInfoC2ERKS1_@Base 0.4.0
 _ZN5KGAPI7Objects11AccountInfoC2Ev@Base 0.4.0
 _ZN5KGAPI7Objects11AccountInfoD0Ev@Base 0.4.0
 _ZN5KGAPI7Objects11AccountInfoD1Ev@Base 0.4.0
 _ZN5KGAPI7Objects11AccountInfoD2Ev@Base 0.4.0
 _ZN5KGAPI7Objects13ContactsGroup10setContentERK7QString@Base 0.4.0
 _ZN5KGAPI7Objects13ContactsGroup10setUpdatedERK9QDateTime@Base 0.4.0
 _ZN5KGAPI7Objects13ContactsGroup16setIsSystemGroupEb@Base 0.4.0
 _ZN5KGAPI7Objects13ContactsGroup5setIdERK7QString@Base 0.4.0
 _ZN5KGAPI7Objects13ContactsGroup8setTitleERK7QString@Base 0.4.0
 _ZN5KGAPI7Objects13ContactsGroupC1ERKS1_@Base 0.4.0
 _ZN5KGAPI7Objects13ContactsGroupC1Ev@Base 0.4.0
 _ZN5KGAPI7Objects13ContactsGroupC2ERKS1_@Base 0.4.0
 _ZN5KGAPI7Objects13ContactsGroupC2Ev@Base 0.4.0
 _ZN5KGAPI7Objects13ContactsGroupD0Ev@Base 0.4.0
 _ZN5KGAPI7Objects13ContactsGroupD1Ev@Base 0.4.0
 _ZN5KGAPI7Objects13ContactsGroupD2Ev@Base 0.4.0
 _ZN5KGAPI7Objects4Task10setDeletedEb@Base 0.4.0
 _ZN5KGAPI7Objects4TaskC1ERKN8KCalCore4TodoE@Base 0.4.0
 _ZN5KGAPI7Objects4TaskC1ERKS1_@Base 0.4.0
 _ZN5KGAPI7Objects4TaskC1Ev@Base 0.4.0
 _ZN5KGAPI7Objects4TaskC2ERKN8KCalCore4TodoE@Base 0.4.0
 _ZN5KGAPI7Objects4TaskC2ERKS1_@Base 0.4.0
 _ZN5KGAPI7Objects4TaskC2Ev@Base 0.4.0
 _ZN5KGAPI7Objects4TaskD0Ev@Base 0.4.0
 _ZN5KGAPI7Objects4TaskD1Ev@Base 0.4.0
 _ZN5KGAPI7Objects4TaskD2Ev@Base 0.4.0
 _ZN5KGAPI7Objects5Event10setDeletedEb@Base 0.4.0
 _ZN5KGAPI7Objects5Event22setUseDefaultRemindersERKb@Base 0.4.0
 _ZN5KGAPI7Objects5EventC1ERKN8KCalCore5EventE@Base 0.4.0
 _ZN5KGAPI7Objects5EventC1ERKS1_@Base 0.4.0
 _ZN5KGAPI7Objects5EventC1Ev@Base 0.4.0
 _ZN5KGAPI7Objects5EventC2ERKN8KCalCore5EventE@Base 0.4.0
 _ZN5KGAPI7Objects5EventC2ERKS1_@Base 0.4.0
 _ZN5KGAPI7Objects5EventC2Ev@Base 0.4.0
 _ZN5KGAPI7Objects5EventD0Ev@Base 0.4.0
 _ZN5KGAPI7Objects5EventD1Ev@Base 0.4.0
 _ZN5KGAPI7Objects5EventD2Ev@Base 0.4.0
 _ZN5KGAPI7Objects5EventaSERKS1_@Base 0.4.0
 _ZN5KGAPI7Objects7Contact10setCreatedERK9KDateTime@Base 0.4.0
 _ZN5KGAPI7Objects7Contact10setDeletedEb@Base 0.4.0
 _ZN5KGAPI7Objects7Contact10setUpdatedERK9KDateTime@Base 0.4.0
 _ZN5KGAPI7Objects7Contact11clearGroupsEv@Base 0.4.0
 _ZN5KGAPI7Objects7Contact11removeGroupERK7QString@Base 0.4.0
 _ZN5KGAPI7Objects7Contact11setBlogFeedERK7QString@Base 0.4.0
 _ZN5KGAPI7Objects7Contact11setPhotoUrlERK4QUrl@Base 0.4.0
 _ZN5KGAPI7Objects7Contact11setPhotoUrlERK7QString@Base 0.4.0
 _ZN5KGAPI7Objects7Contact13setProfessionERK7QString@Base 0.4.0
 _ZN5KGAPI7Objects7Contact14setAnniversaryERK7QString@Base 0.4.0
 _ZN5KGAPI7Objects7Contact14setSpousesNameERK7QString@Base 0.4.0
 _ZN5KGAPI7Objects7Contact15setManagersNameERK7QString@Base 0.4.0
 _ZN5KGAPI7Objects7Contact17phoneSchemeToTypeERK7QString@Base 0.4.0
 _ZN5KGAPI7Objects7Contact17phoneTypeToSchemeE6QFlagsIN4KABC11PhoneNumber8TypeFlagEE@Base 0.4.0
 _ZN5KGAPI7Objects7Contact17setAssistantsNameERK7QString@Base 0.4.0
 _ZN5KGAPI7Objects7Contact18IMProtocolToSchemeENS1_10IMProtocolE@Base 0.4.0
 _ZN5KGAPI7Objects7Contact18IMSchemeToProtocolERK7QString@Base 0.4.0
 _ZN5KGAPI7Objects7Contact19addressSchemeToTypeERK7QStringb@Base 0.4.0
 _ZN5KGAPI7Objects7Contact19addressTypeToSchemeE6QFlagsIN4KABC7Address8TypeFlagEEPb@Base 0.4.0
 _ZN5KGAPI7Objects7Contact22IMProtocolNameToSchemeERK7QString@Base 0.4.0
 _ZN5KGAPI7Objects7Contact22IMSchemeToProtocolNameERK7QString@Base 0.4.0
 _ZN5KGAPI7Objects7Contact8addGroupERK7QString@Base 0.4.0
 _ZN5KGAPI7Objects7Contact9setGroupsERK11QStringList@Base 0.4.0
 _ZN5KGAPI7Objects7Contact9setOfficeERK7QString@Base 0.4.0
 _ZN5KGAPI7Objects7ContactC1ERKN4KABC9AddresseeE@Base 0.4.0
 _ZN5KGAPI7Objects7ContactC1ERKS1_@Base 0.4.0
 _ZN5KGAPI7Objects7ContactC1Ev@Base 0.4.0
 _ZN5KGAPI7Objects7ContactC2ERKN4KABC9AddresseeE@Base 0.4.0
 _ZN5KGAPI7Objects7ContactC2ERKS1_@Base 0.4.0
 _ZN5KGAPI7Objects7ContactC2Ev@Base 0.4.0
 _ZN5KGAPI7Objects7ContactD0Ev@Base 0.4.0
 _ZN5KGAPI7Objects7ContactD1Ev@Base 0.4.0
 _ZN5KGAPI7Objects7ContactD2Ev@Base 0.4.0
 _ZN5KGAPI7Objects8Calendar10setDetailsERK7QString@Base 0.4.0
 _ZN5KGAPI7Objects8Calendar11setEditableEb@Base 0.4.0
 _ZN5KGAPI7Objects8Calendar11setLocationERK7QString@Base 0.4.0
 _ZN5KGAPI7Objects8Calendar11setTimezoneERK7QString@Base 0.4.0
 _ZN5KGAPI7Objects8Calendar17addDefaultReminerERK14QSharedPointerINS0_8ReminderEE@Base 0.4.0
 _ZN5KGAPI7Objects8Calendar19setDefaultRemindersERK5QListI14QSharedPointerINS0_8ReminderEEE@Base 0.4.0
 _ZN5KGAPI7Objects8Calendar6setUidERK7QString@Base 0.4.0
 _ZN5KGAPI7Objects8Calendar8setTitleERK7QString@Base 0.4.0
 _ZN5KGAPI7Objects8CalendarC1ERKS1_@Base 0.4.0
 _ZN5KGAPI7Objects8CalendarC1Ev@Base 0.4.0
 _ZN5KGAPI7Objects8CalendarC2ERKS1_@Base 0.4.0
 _ZN5KGAPI7Objects8CalendarC2Ev@Base 0.4.0
 _ZN5KGAPI7Objects8CalendarD0Ev@Base 0.4.0
 _ZN5KGAPI7Objects8CalendarD1Ev@Base 0.4.0
 _ZN5KGAPI7Objects8CalendarD2Ev@Base 0.4.0
 _ZN5KGAPI7Objects8Reminder14setStartOffsetERKN8KCalCore8DurationE@Base 0.4.0
 _ZN5KGAPI7Objects8Reminder7setTypeERKN8KCalCore5Alarm4TypeE@Base 0.4.0
 _ZN5KGAPI7Objects8ReminderC1ERKN8KCalCore5Alarm4TypeERKNS2_8DurationE@Base 0.4.0
 _ZN5KGAPI7Objects8ReminderC1ERKS1_@Base 0.4.0
 _ZN5KGAPI7Objects8ReminderC1Ev@Base 0.4.0
 _ZN5KGAPI7Objects8ReminderC2ERKN8KCalCore5Alarm4TypeERKNS2_8DurationE@Base 0.4.0
 _ZN5KGAPI7Objects8ReminderC2ERKS1_@Base 0.4.0
 _ZN5KGAPI7Objects8ReminderC2Ev@Base 0.4.0
 _ZN5KGAPI7Objects8ReminderD0Ev@Base 0.4.0
 _ZN5KGAPI7Objects8ReminderD1Ev@Base 0.4.0
 _ZN5KGAPI7Objects8ReminderD2Ev@Base 0.4.0
 _ZN5KGAPI7Objects8TaskList6setUidERK7QString@Base 0.4.0
 _ZN5KGAPI7Objects8TaskList8setTitleERK7QString@Base 0.4.0
 _ZN5KGAPI7Objects8TaskListC1ERKS1_@Base 0.4.0
 _ZN5KGAPI7Objects8TaskListC1Ev@Base 0.4.0
 _ZN5KGAPI7Objects8TaskListC2ERKS1_@Base 0.4.0
 _ZN5KGAPI7Objects8TaskListC2Ev@Base 0.4.0
 _ZN5KGAPI7Objects8TaskListD0Ev@Base 0.4.0
 _ZN5KGAPI7Objects8TaskListD1Ev@Base 0.4.0
 _ZN5KGAPI7Objects8TaskListD2Ev@Base 0.4.0
 _ZN5KGAPI7Request10setRealUrlERK4QUrl@Base 0.4.0
 _ZN5KGAPI7Request11qt_metacallEN11QMetaObject4CallEiPPv@Base 0.4.0
 _ZN5KGAPI7Request11qt_metacastEPKc@Base 0.4.0
 _ZN5KGAPI7Request11setPropertyERK7QStringRK8QVariant@Base 0.4.0
 _ZN5KGAPI7Request14setRequestDataERK10QByteArrayRK7QString@Base 0.4.0
 _ZN5KGAPI7Request14setRequestTypeENS0_11RequestTypeE@Base 0.4.0
 _ZN5KGAPI7Request14setServiceNameERK7QString@Base 0.4.0
 _ZN5KGAPI7Request16staticMetaObjectE@Base 0.4.0
 _ZN5KGAPI7Request5errorENS_5ErrorERK7QString@Base 0.4.0
 _ZN5KGAPI7Request6setUrlERK4QUrl@Base 0.4.0
 _ZN5KGAPI7RequestC1ERK4QUrlNS0_11RequestTypeERK7QStringRK14QSharedPointerINS_7AccountEE@Base 0.4.0
 _ZN5KGAPI7RequestC1Ev@Base 0.4.0
 _ZN5KGAPI7RequestC2ERK4QUrlNS0_11RequestTypeERK7QStringRK14QSharedPointerINS_7AccountEE@Base 0.4.0
 _ZN5KGAPI7RequestC2Ev@Base 0.4.0
 _ZN5KGAPI7RequestD0Ev@Base 0.4.0
 _ZN5KGAPI7RequestD1Ev@Base 0.4.0
 _ZN5KGAPI7RequestD2Ev@Base 0.4.0
 _ZN5KGAPI8Services11AccountInfo11XMLToObjectERK10QByteArray@Base 0.4.0
 _ZN5KGAPI8Services11AccountInfo11objectToXMLEPNS_6ObjectE@Base 0.4.0
 _ZN5KGAPI8Services11AccountInfo12JSONToObjectERK10QByteArray@Base 0.4.0
 _ZN5KGAPI8Services11AccountInfo12objectToJSONEPNS_6ObjectE@Base 0.4.0
 _ZN5KGAPI8Services11AccountInfo12parseXMLFeedERK10QByteArrayRNS_8FeedDataE@Base 0.4.0
 _ZN5KGAPI8Services11AccountInfo13EmailScopeUrlE@Base 0.4.0
 _ZN5KGAPI8Services11AccountInfo13parseJSONFeedERK10QByteArrayRNS_8FeedDataE@Base 0.4.0
 _ZN5KGAPI8Services11AccountInfo8ScopeUrlE@Base 0.4.0
 _ZN5KGAPI8Services11AccountInfo8fetchUrlEv@Base 0.4.0
 _ZN5KGAPI8Services11AccountInfoD0Ev@Base 0.4.0
 _ZN5KGAPI8Services11AccountInfoD1Ev@Base 0.4.0
 _ZN5KGAPI8Services11AccountInfoD2Ev@Base 0.4.0
 _ZN5KGAPI8Services5Tasks11XMLToObjectERK10QByteArray@Base 0.4.0
 _ZN5KGAPI8Services5Tasks11moveTaskUrlERK7QStringS4_S4_@Base 0.4.0
 _ZN5KGAPI8Services5Tasks11objectToXMLEPNS_6ObjectE@Base 0.4.0
 _ZN5KGAPI8Services5Tasks12JSONToObjectERK10QByteArray@Base 0.4.0
 _ZN5KGAPI8Services5Tasks12fetchTaskUrlERK7QStringS4_@Base 0.4.0
 _ZN5KGAPI8Services5Tasks12objectToJSONEPNS_6ObjectE@Base 0.4.0
 _ZN5KGAPI8Services5Tasks12parseXMLFeedERK10QByteArrayRNS_8FeedDataE@Base 0.4.0
 _ZN5KGAPI8Services5Tasks13createTaskUrlERK7QString@Base 0.4.0
 _ZN5KGAPI8Services5Tasks13parseJSONFeedERK10QByteArrayRNS_8FeedDataE@Base 0.4.0
 _ZN5KGAPI8Services5Tasks13removeTaskUrlERK7QStringS4_@Base 0.4.0
 _ZN5KGAPI8Services5Tasks13updateTaskUrlERK7QStringS4_@Base 0.4.0
 _ZN5KGAPI8Services5Tasks16fetchAllTasksUrlERK7QString@Base 0.4.0
 _ZN5KGAPI8Services5Tasks16supportsJSONReadEP7QString@Base 0.4.0
 _ZN5KGAPI8Services5Tasks17createTaskListUrlEv@Base 0.4.0
 _ZN5KGAPI8Services5Tasks17fetchTaskListsUrlEv@Base 0.4.0
 _ZN5KGAPI8Services5Tasks17removeTaskListUrlERK7QString@Base 0.4.0
 _ZN5KGAPI8Services5Tasks17supportsJSONWriteEP7QString@Base 0.4.0
 _ZN5KGAPI8Services5Tasks17updateTaskListUrlERK7QString@Base 0.4.0
 _ZN5KGAPI8Services5Tasks8ScopeUrlE@Base 0.4.0
 _ZN5KGAPI8Services5TasksD0Ev@Base 0.4.0
 _ZN5KGAPI8Services5TasksD1Ev@Base 0.4.0
 _ZN5KGAPI8Services5TasksD2Ev@Base 0.4.0
 _ZN5KGAPI8Services8Calendar11XMLToObjectERK10QByteArray@Base 0.4.0
 _ZN5KGAPI8Services8Calendar11objectToXMLEPNS_6ObjectE@Base 0.4.0
 _ZN5KGAPI8Services8Calendar12JSONToObjectERK10QByteArray@Base 0.4.0
 _ZN5KGAPI8Services8Calendar12moveEventUrlERK7QStringS4_S4_@Base 0.4.0
 _ZN5KGAPI8Services8Calendar12objectToJSONEPNS_6ObjectE@Base 0.4.0
 _ZN5KGAPI8Services8Calendar12parseXMLFeedERK10QByteArrayRNS_8FeedDataE@Base 0.4.0
 _ZN5KGAPI8Services8Calendar13fetchEventUrlERK7QStringS4_@Base 0.4.0
 _ZN5KGAPI8Services8Calendar13parseJSONFeedERK10QByteArrayRNS_8FeedDataE@Base 0.4.0
 _ZN5KGAPI8Services8Calendar14createEventUrlERK7QString@Base 0.4.0
 _ZN5KGAPI8Services8Calendar14fetchEventsUrlERK7QString@Base 0.4.0
 _ZN5KGAPI8Services8Calendar14removeEventUrlERK7QStringS4_@Base 0.4.0
 _ZN5KGAPI8Services8Calendar14updateEventUrlERK7QStringS4_@Base 0.4.0
 _ZN5KGAPI8Services8Calendar16fetchCalendarUrlERK7QString@Base 0.4.0
 _ZN5KGAPI8Services8Calendar16supportsJSONReadEP7QString@Base 0.4.0
 _ZN5KGAPI8Services8Calendar17createCalendarUrlEv@Base 0.4.0
 _ZN5KGAPI8Services8Calendar17fetchCalendarsUrlEv@Base 0.4.0
 _ZN5KGAPI8Services8Calendar17removeCalendarUrlERK7QString@Base 0.4.0
 _ZN5KGAPI8Services8Calendar17supportsJSONWriteEP7QString@Base 0.4.0
 _ZN5KGAPI8Services8Calendar17updateCalendarUrlERK7QString@Base 0.4.0
 _ZN5KGAPI8Services8Calendar8ScopeUrlE@Base 0.4.0
 _ZN5KGAPI8Services8CalendarD0Ev@Base 0.4.0
 _ZN5KGAPI8Services8CalendarD1Ev@Base 0.4.0
 _ZN5KGAPI8Services8CalendarD2Ev@Base 0.4.0
 _ZN5KGAPI8Services8Contacts11XMLToObjectERK10QByteArray@Base 0.4.0
 _ZN5KGAPI8Services8Contacts11objectToXMLEPNS_6ObjectE@Base 0.4.0
 _ZN5KGAPI8Services8Contacts12JSONToObjectERK10QByteArray@Base 0.4.0
 _ZN5KGAPI8Services8Contacts12objectToJSONEPNS_6ObjectE@Base 0.4.0
 _ZN5KGAPI8Services8Contacts12parseXMLFeedERK10QByteArrayRNS_8FeedDataE@Base 0.4.0
 _ZN5KGAPI8Services8Contacts13fetchGroupUrlERK7QStringS4_@Base 0.4.0
 _ZN5KGAPI8Services8Contacts13parseJSONFeedERK10QByteArrayRNS_8FeedDataE@Base 0.4.0
 _ZN5KGAPI8Services8Contacts14createGroupUrlERK7QString@Base 0.4.0
 _ZN5KGAPI8Services8Contacts14removeGroupUrlERK7QStringS4_@Base 0.4.0
 _ZN5KGAPI8Services8Contacts14updateGroupUrlERK7QStringS4_@Base 0.4.0
 _ZN5KGAPI8Services8Contacts15fetchContactUrlERK7QStringS4_@Base 0.4.0
 _ZN5KGAPI8Services8Contacts16createContactUrlERK7QString@Base 0.4.0
 _ZN5KGAPI8Services8Contacts16removeContactUrlERK7QStringS4_@Base 0.4.0
 _ZN5KGAPI8Services8Contacts16supportsJSONReadEP7QString@Base 0.4.0
 _ZN5KGAPI8Services8Contacts16updateContactUrlERK7QStringS4_@Base 0.4.0
 _ZN5KGAPI8Services8Contacts17fetchAllGroupsUrlERK7QString@Base 0.4.0
 _ZN5KGAPI8Services8Contacts17supportsJSONWriteEP7QString@Base 0.4.0
 _ZN5KGAPI8Services8Contacts19fetchAllContactsUrlERK7QStringRKb@Base 0.4.0
 _ZN5KGAPI8Services8Contacts8ScopeUrlE@Base 0.4.0
 _ZN5KGAPI8Services8Contacts8photoUrlERK7QStringS4_@Base 0.4.0
 _ZN5KGAPI8Services8ContactsD0Ev@Base 0.4.0
 _ZN5KGAPI8Services8ContactsD1Ev@Base 0.4.0
 _ZN5KGAPI8Services8ContactsD2Ev@Base 0.4.0
 _ZNK5KGAPI12FetchListJob10metaObjectEv@Base 0.4.0
 _ZNK5KGAPI12FetchListJob11accountNameEv@Base 0.4.0
 _ZNK5KGAPI12FetchListJob3urlEv@Base 0.4.0
 _ZNK5KGAPI12FetchListJob5itemsEv@Base 0.4.0
 _ZNK5KGAPI12FetchListJob7serviceEv@Base 0.4.0
 _ZNK5KGAPI13AccessManager10metaObjectEv@Base 0.4.0
 _ZNK5KGAPI2Ui10AuthWidget10metaObjectEv@Base 0.4.0
 _ZNK5KGAPI2Ui10AuthWidget11getProgressEv@Base 0.4.0
 _ZNK5KGAPI2Ui10AuthWidget18getShowProgressBarEv@Base 0.4.0
 _ZNK5KGAPI2Ui13AccountsCombo10metaObjectEv@Base 0.4.0
 _ZNK5KGAPI2Ui13AccountsCombo14currentAccountEv@Base 0.4.0
 _ZNK5KGAPI4Auth10metaObjectEv@Base 0.4.0
 _ZNK5KGAPI4Auth13kwalletFolderEv@Base 0.4.0
 _ZNK5KGAPI4Auth6apiKeyEv@Base 0.4.0
 _ZNK5KGAPI4Auth9apiSecretEv@Base 0.4.0
 _ZNK5KGAPI5Reply11requestTypeEv@Base 0.4.0
 _ZNK5KGAPI5Reply11serviceNameEv@Base 0.4.0
 _ZNK5KGAPI5Reply5errorEv@Base 0.4.0
 _ZNK5KGAPI5Reply7readAllEv@Base 0.4.0
 _ZNK5KGAPI5Reply7requestEv@Base 0.4.0
 _ZNK5KGAPI5Reply9replyDataEv@Base 0.4.0
 _ZNK5KGAPI6Object4etagEv@Base 0.4.0
 _ZNK5KGAPI7Account11accessTokenEv@Base 0.4.0
 _ZNK5KGAPI7Account11accountNameEv@Base 0.4.0
 _ZNK5KGAPI7Account12refreshTokenEv@Base 0.4.0
 _ZNK5KGAPI7Account6scopesEv@Base 0.4.0
 _ZNK5KGAPI7Objects11AccountInfo10familyNameEv@Base 0.4.0
 _ZNK5KGAPI7Objects11AccountInfo13verifiedEmailEv@Base 0.4.0
 _ZNK5KGAPI7Objects11AccountInfo2idEv@Base 0.4.0
 _ZNK5KGAPI7Objects11AccountInfo4linkEv@Base 0.4.0
 _ZNK5KGAPI7Objects11AccountInfo4nameEv@Base 0.4.0
 _ZNK5KGAPI7Objects11AccountInfo5emailEv@Base 0.4.0
 _ZNK5KGAPI7Objects11AccountInfo6genderEv@Base 0.4.0
 _ZNK5KGAPI7Objects11AccountInfo6localeEv@Base 0.4.0
 _ZNK5KGAPI7Objects11AccountInfo8birthdayEv@Base 0.4.0
 _ZNK5KGAPI7Objects11AccountInfo8photoUrlEv@Base 0.4.0
 _ZNK5KGAPI7Objects11AccountInfo8timezoneEv@Base 0.4.0
 _ZNK5KGAPI7Objects11AccountInfo9givenNameEv@Base 0.4.0
 _ZNK5KGAPI7Objects13ContactsGroup13isSystemGroupEv@Base 0.4.0
 _ZNK5KGAPI7Objects13ContactsGroup2idEv@Base 0.4.0
 _ZNK5KGAPI7Objects13ContactsGroup5titleEv@Base 0.4.0
 _ZNK5KGAPI7Objects13ContactsGroup7contentEv@Base 0.4.0
 _ZNK5KGAPI7Objects13ContactsGroup7updatedEv@Base 0.4.0
 _ZNK5KGAPI7Objects4Task7deletedEv@Base 0.4.0
 _ZNK5KGAPI7Objects5Event19useDefaultRemindersEv@Base 0.4.0
 _ZNK5KGAPI7Objects5Event7deletedEv@Base 0.4.0
 _ZNK5KGAPI7Objects7Contact10professionEv@Base 0.4.0
 _ZNK5KGAPI7Objects7Contact11anniversaryEv@Base 0.4.0
 _ZNK5KGAPI7Objects7Contact11spousesNameEv@Base 0.4.0
 _ZNK5KGAPI7Objects7Contact12managersNameEv@Base 0.4.0
 _ZNK5KGAPI7Objects7Contact14assistantsNameEv@Base 0.4.0
 _ZNK5KGAPI7Objects7Contact14groupIsDeletedERK7QString@Base 0.4.0
 _ZNK5KGAPI7Objects7Contact6groupsEv@Base 0.4.0
 _ZNK5KGAPI7Objects7Contact6officeEv@Base 0.4.0
 _ZNK5KGAPI7Objects7Contact7createdEv@Base 0.4.0
 _ZNK5KGAPI7Objects7Contact7deletedEv@Base 0.4.0
 _ZNK5KGAPI7Objects7Contact7updatedEv@Base 0.4.0
 _ZNK5KGAPI7Objects7Contact8blogFeedEv@Base 0.4.0
 _ZNK5KGAPI7Objects7Contact8photoUrlEv@Base 0.4.0
 _ZNK5KGAPI7Objects8Calendar16defaultRemindersEv@Base 0.4.0
 _ZNK5KGAPI7Objects8Calendar3uidEv@Base 0.4.0
 _ZNK5KGAPI7Objects8Calendar5titleEv@Base 0.4.0
 _ZNK5KGAPI7Objects8Calendar7detailsEv@Base 0.4.0
 _ZNK5KGAPI7Objects8Calendar8editableEv@Base 0.4.0
 _ZNK5KGAPI7Objects8Calendar8locationEv@Base 0.4.0
 _ZNK5KGAPI7Objects8Calendar8timezoneEv@Base 0.4.0
 _ZNK5KGAPI7Objects8Reminder11startOffsetEv@Base 0.4.0
 _ZNK5KGAPI7Objects8Reminder4typeEv@Base 0.4.0
 _ZNK5KGAPI7Objects8Reminder7toAlarmEPN8KCalCore9IncidenceE@Base 0.4.0
 _ZNK5KGAPI7Objects8TaskList3uidEv@Base 0.4.0
 _ZNK5KGAPI7Objects8TaskList5titleEv@Base 0.4.0
 _ZNK5KGAPI7Request10metaObjectEv@Base 0.4.0
 _ZNK5KGAPI7Request11contentTypeEv@Base 0.4.0
 _ZNK5KGAPI7Request11hasPropertyERK7QString@Base 0.4.0
 _ZNK5KGAPI7Request11requestDataEP7QString@Base 0.4.0
 _ZNK5KGAPI7Request11requestTypeEv@Base 0.4.0
 _ZNK5KGAPI7Request11serviceNameEv@Base 0.4.0
 _ZNK5KGAPI7Request7accountEv@Base 0.4.0
 _ZNK5KGAPI7Request7realUrlEv@Base 0.4.0
 _ZNK5KGAPI7Request8propertyERK7QString@Base 0.4.0
 _ZNK5KGAPI8Services11AccountInfo15protocolVersionEv@Base 0.4.0
 _ZNK5KGAPI8Services11AccountInfo8scopeUrlEv@Base 0.4.0
 _ZNK5KGAPI8Services5Tasks15protocolVersionEv@Base 0.4.0
 _ZNK5KGAPI8Services5Tasks8scopeUrlEv@Base 0.4.0
 _ZNK5KGAPI8Services8Calendar15protocolVersionEv@Base 0.4.0
 _ZNK5KGAPI8Services8Calendar8scopeUrlEv@Base 0.4.0
 _ZNK5KGAPI8Services8Contacts15protocolVersionEv@Base 0.4.0
 _ZNK5KGAPI8Services8Contacts8scopeUrlEv@Base 0.4.0
 _ZTIN4KABC9AddresseeE@Base 0.4.0
 _ZTIN5KGAPI12FetchListJobE@Base 0.4.0
 _ZTIN5KGAPI13AccessManagerE@Base 0.4.0
 _ZTIN5KGAPI2Ui10AuthWidgetE@Base 0.4.0
 _ZTIN5KGAPI2Ui13AccountsComboE@Base 0.4.0
 _ZTIN5KGAPI4AuthE@Base 0.4.0
 _ZTIN5KGAPI5ReplyE@Base 0.4.0
 _ZTIN5KGAPI6ObjectE@Base 0.4.0
 _ZTIN5KGAPI7AccountE@Base 0.4.0
 _ZTIN5KGAPI7Objects11AccountInfoE@Base 0.4.0
 _ZTIN5KGAPI7Objects13ContactsGroupE@Base 0.4.0
 _ZTIN5KGAPI7Objects4TaskE@Base 0.4.0
 _ZTIN5KGAPI7Objects5EventE@Base 0.4.0
 _ZTIN5KGAPI7Objects7ContactE@Base 0.4.0
 _ZTIN5KGAPI7Objects8CalendarE@Base 0.4.0
 _ZTIN5KGAPI7Objects8ReminderE@Base 0.4.0
 _ZTIN5KGAPI7Objects8TaskListE@Base 0.4.0
 _ZTIN5KGAPI7RequestE@Base 0.4.0
 _ZTIN5KGAPI7ServiceE@Base 0.4.0
 _ZTIN5KGAPI8Services11AccountInfoE@Base 0.4.0
 _ZTIN5KGAPI8Services5TasksE@Base 0.4.0
 _ZTIN5KGAPI8Services8CalendarE@Base 0.4.0
 _ZTIN5KGAPI8Services8ContactsE@Base 0.4.0
 _ZTSN4KABC9AddresseeE@Base 0.4.0
 _ZTSN5KGAPI12FetchListJobE@Base 0.4.0
 _ZTSN5KGAPI13AccessManagerE@Base 0.4.0
 _ZTSN5KGAPI2Ui10AuthWidgetE@Base 0.4.0
 _ZTSN5KGAPI2Ui13AccountsComboE@Base 0.4.0
 _ZTSN5KGAPI4AuthE@Base 0.4.0
 _ZTSN5KGAPI5ReplyE@Base 0.4.0
 _ZTSN5KGAPI6ObjectE@Base 0.4.0
 _ZTSN5KGAPI7AccountE@Base 0.4.0
 _ZTSN5KGAPI7Objects11AccountInfoE@Base 0.4.0
 _ZTSN5KGAPI7Objects13ContactsGroupE@Base 0.4.0
 _ZTSN5KGAPI7Objects4TaskE@Base 0.4.0
 _ZTSN5KGAPI7Objects5EventE@Base 0.4.0
 _ZTSN5KGAPI7Objects7ContactE@Base 0.4.0
 _ZTSN5KGAPI7Objects8CalendarE@Base 0.4.0
 _ZTSN5KGAPI7Objects8ReminderE@Base 0.4.0
 _ZTSN5KGAPI7Objects8TaskListE@Base 0.4.0
 _ZTSN5KGAPI7RequestE@Base 0.4.0
 _ZTSN5KGAPI7ServiceE@Base 0.4.0
 _ZTSN5KGAPI8Services11AccountInfoE@Base 0.4.0
 _ZTSN5KGAPI8Services5TasksE@Base 0.4.0
 _ZTSN5KGAPI8Services8CalendarE@Base 0.4.0
 _ZTSN5KGAPI8Services8ContactsE@Base 0.4.0
 _ZTVN5KGAPI12FetchListJobE@Base 0.4.0
 _ZTVN5KGAPI13AccessManagerE@Base 0.4.0
 _ZTVN5KGAPI2Ui10AuthWidgetE@Base 0.4.0
 _ZTVN5KGAPI2Ui13AccountsComboE@Base 0.4.0
 _ZTVN5KGAPI4AuthE@Base 0.4.0
 _ZTVN5KGAPI5ReplyE@Base 0.4.0
 _ZTVN5KGAPI6ObjectE@Base 0.4.0
 _ZTVN5KGAPI7AccountE@Base 0.4.0
 _ZTVN5KGAPI7Objects11AccountInfoE@Base 0.4.0
 _ZTVN5KGAPI7Objects13ContactsGroupE@Base 0.4.0
 _ZTVN5KGAPI7Objects4TaskE@Base 0.4.0
 _ZTVN5KGAPI7Objects5EventE@Base 0.4.0
 _ZTVN5KGAPI7Objects7ContactE@Base 0.4.0
 _ZTVN5KGAPI7Objects8CalendarE@Base 0.4.0
 _ZTVN5KGAPI7Objects8ReminderE@Base 0.4.0
 _ZTVN5KGAPI7Objects8TaskListE@Base 0.4.0
 _ZTVN5KGAPI7RequestE@Base 0.4.0
 _ZTVN5KGAPI7ServiceE@Base 0.4.0
 _ZTVN5KGAPI8Services11AccountInfoE@Base 0.4.0
 _ZTVN5KGAPI8Services5TasksE@Base 0.4.0
 _ZTVN5KGAPI8Services8CalendarE@Base 0.4.0
 _ZTVN5KGAPI8Services8ContactsE@Base 0.4.0
 (c++)"non-virtual thunk to KGAPI::Objects::Event::~Event()@Base" 0.4.0
 (c++)"non-virtual thunk to KGAPI::Objects::Task::~Task()@Base" 0.4.0
 (c++)"non-virtual thunk to KGAPI::Ui::AccountsCombo::~AccountsCombo()@Base" 0.4.0
 (c++)"non-virtual thunk to KGAPI::Ui::AuthWidget::~AuthWidget()@Base" 0.4.0
