# SymbolsHelper-Confirmed: 5.1.0 amd64
libKF5GAPIDrive.so.5 libkf5gapidrive5 #MINVER#
 _ZN6KGAPI212DriveService11copyFileUrlERK7QString@Base 4.80.0
 _ZN6KGAPI212DriveService11fetchAppUrlERK7QString@Base 4.80.0
 _ZN6KGAPI212DriveService12fetchAppsUrlEv@Base 4.80.0
 _ZN6KGAPI212DriveService12fetchFileUrlERK7QString@Base 4.80.0
 _ZN6KGAPI212DriveService12touchFileUrlERK7QString@Base 4.80.0
 _ZN6KGAPI212DriveService12trashFileUrlERK7QString@Base 4.80.0
 _ZN6KGAPI212DriveService13deleteFileUrlERK7QString@Base 4.80.0
 _ZN6KGAPI212DriveService13fetchAboutUrlEbxx@Base 4.80.0
 _ZN6KGAPI212DriveService13fetchFilesUrlEv@Base 4.80.0
 _ZN6KGAPI212DriveService14fetchChangeUrlERK7QString@Base 4.80.0
 _ZN6KGAPI212DriveService14untrashFileUrlERK7QString@Base 4.80.0
 _ZN6KGAPI212DriveService15fetchChangesUrlEv@Base 4.80.0
 _ZN6KGAPI212DriveService16fetchRevisionUrlERK7QStringS3_@Base 4.80.0
 _ZN6KGAPI212DriveService17deleteRevisionUrlERK7QStringS3_@Base 4.80.0
 _ZN6KGAPI212DriveService17fetchRevisionsUrlERK7QString@Base 4.80.0
 _ZN6KGAPI212DriveService17modifyRevisionUrlERK7QStringS3_@Base 4.80.0
 _ZN6KGAPI212DriveService18fetchPermissionUrlERK7QStringS3_@Base 4.80.0
 _ZN6KGAPI212DriveService18uploadMediaFileUrlERK7QString@Base 4.80.0
 _ZN6KGAPI212DriveService19createPermissionUrlERK7QString@Base 4.80.0
 _ZN6KGAPI212DriveService19deletePermissionUrlERK7QStringS3_@Base 4.80.0
 _ZN6KGAPI212DriveService19fetchChildReferenceERK7QStringS3_@Base 4.80.0
 _ZN6KGAPI212DriveService19fetchPermissionsUrlERK7QString@Base 4.80.0
 _ZN6KGAPI212DriveService19modifyPermissionUrlERK7QStringS3_@Base 4.80.0
 _ZN6KGAPI212DriveService20createChildReferenceERK7QString@Base 4.80.0
 _ZN6KGAPI212DriveService20deleteChildReferenceERK7QStringS3_@Base 4.80.0
 _ZN6KGAPI212DriveService20fetchChildReferencesERK7QString@Base 4.80.0
 _ZN6KGAPI212DriveService21uploadMetadataFileUrlERK7QString@Base 4.80.0
 _ZN6KGAPI212DriveService22uploadMultipartFileUrlERK7QString@Base 4.80.0
 _ZN6KGAPI212DriveService23fetchParentReferenceUrlERK7QStringS3_@Base 4.80.0
 _ZN6KGAPI212DriveService24createParentReferenceUrlERK7QString@Base 4.80.0
 _ZN6KGAPI212DriveService24deleteParentReferenceUrlERK7QStringS3_@Base 4.80.0
 _ZN6KGAPI212DriveService24fetchParentReferencesUrlERK7QString@Base 4.80.0
 _ZN6KGAPI25Drive10Permission11setWithLinkEb@Base 4.80.0
 _ZN6KGAPI25Drive10Permission12fromJSONFeedERK10QByteArray@Base 4.80.0
 _ZN6KGAPI25Drive10Permission18setAdditionalRolesERK5QListINS1_4RoleEE@Base 4.80.0
 _ZN6KGAPI25Drive10Permission5setIdERK7QString@Base 4.80.0
 _ZN6KGAPI25Drive10Permission6toJSONERK14QSharedPointerIS1_E@Base 4.80.0
 _ZN6KGAPI25Drive10Permission7setRoleENS1_4RoleE@Base 4.80.0
 _ZN6KGAPI25Drive10Permission7setTypeENS1_4TypeE@Base 4.80.0
 _ZN6KGAPI25Drive10Permission8fromJSONERK10QByteArray@Base 4.80.0
 _ZN6KGAPI25Drive10Permission8setValueERK7QString@Base 4.80.0
 _ZN6KGAPI25Drive10PermissionC1ERKS1_@Base 4.80.0
 _ZN6KGAPI25Drive10PermissionC1Ev@Base 4.80.0
 _ZN6KGAPI25Drive10PermissionC2ERKS1_@Base 4.80.0
 _ZN6KGAPI25Drive10PermissionC2Ev@Base 4.80.0
 _ZN6KGAPI25Drive10PermissionD0Ev@Base 4.80.0
 _ZN6KGAPI25Drive10PermissionD1Ev@Base 4.80.0
 _ZN6KGAPI25Drive10PermissionD2Ev@Base 4.80.0
 _ZN6KGAPI25Drive11AppFetchJob20handleReplyWithItemsEPK13QNetworkReplyRK10QByteArray@Base 4.80.0
 _ZN6KGAPI25Drive11AppFetchJob5startEv@Base 4.80.0
 _ZN6KGAPI25Drive11AppFetchJobC1ERK14QSharedPointerINS_7AccountEEP7QObject@Base 4.80.0
 _ZN6KGAPI25Drive11AppFetchJobC1ERK7QStringRK14QSharedPointerINS_7AccountEEP7QObject@Base 4.80.0
 _ZN6KGAPI25Drive11AppFetchJobC2ERK14QSharedPointerINS_7AccountEEP7QObject@Base 4.80.0
 _ZN6KGAPI25Drive11AppFetchJobC2ERK7QStringRK14QSharedPointerINS_7AccountEEP7QObject@Base 4.80.0
 _ZN6KGAPI25Drive11AppFetchJobD0Ev@Base 4.80.0
 _ZN6KGAPI25Drive11AppFetchJobD1Ev@Base 4.80.0
 _ZN6KGAPI25Drive11AppFetchJobD2Ev@Base 4.80.0
 _ZN6KGAPI25Drive11FileCopyJob11handleReplyEPK13QNetworkReplyRK10QByteArray@Base 4.80.0
 _ZN6KGAPI25Drive11FileCopyJob11qt_metacallEN11QMetaObject4CallEiPPv@Base 4.80.0
 _ZN6KGAPI25Drive11FileCopyJob11qt_metacastEPKc@Base 4.80.0
 _ZN6KGAPI25Drive11FileCopyJob15dispatchRequestEP21QNetworkAccessManagerRK15QNetworkRequestRK10QByteArrayRK7QString@Base 4.80.0
 _ZN6KGAPI25Drive11FileCopyJob16staticMetaObjectE@Base 4.80.0
 _ZN6KGAPI25Drive11FileCopyJob5startEv@Base 4.80.0
 _ZN6KGAPI25Drive11FileCopyJobC1ERK14QSharedPointerINS0_4FileEES6_RKS2_INS_7AccountEEP7QObject@Base 4.80.0
 _ZN6KGAPI25Drive11FileCopyJobC1ERK4QMapI14QSharedPointerINS0_4FileEES5_ERKS3_INS_7AccountEEP7QObject@Base 4.80.0
 _ZN6KGAPI25Drive11FileCopyJobC1ERK4QMapI7QString14QSharedPointerINS0_4FileEEERKS4_INS_7AccountEEP7QObject@Base 4.80.0
 _ZN6KGAPI25Drive11FileCopyJobC1ERK7QStringRK14QSharedPointerINS0_4FileEERKS5_INS_7AccountEEP7QObject@Base 4.80.0
 _ZN6KGAPI25Drive11FileCopyJobC2ERK14QSharedPointerINS0_4FileEES6_RKS2_INS_7AccountEEP7QObject@Base 4.80.0
 _ZN6KGAPI25Drive11FileCopyJobC2ERK4QMapI14QSharedPointerINS0_4FileEES5_ERKS3_INS_7AccountEEP7QObject@Base 4.80.0
 _ZN6KGAPI25Drive11FileCopyJobC2ERK4QMapI7QString14QSharedPointerINS0_4FileEEERKS4_INS_7AccountEEP7QObject@Base 4.80.0
 _ZN6KGAPI25Drive11FileCopyJobC2ERK7QStringRK14QSharedPointerINS0_4FileEERKS5_INS_7AccountEEP7QObject@Base 4.80.0
 _ZN6KGAPI25Drive11FileCopyJobD0Ev@Base 4.80.0
 _ZN6KGAPI25Drive11FileCopyJobD1Ev@Base 4.80.0
 _ZN6KGAPI25Drive11FileCopyJobD2Ev@Base 4.80.0
 _ZN6KGAPI25Drive12FileFetchJob11qt_metacallEN11QMetaObject4CallEiPPv@Base 4.80.0
 _ZN6KGAPI25Drive12FileFetchJob11qt_metacastEPKc@Base 4.80.0
 _ZN6KGAPI25Drive12FileFetchJob16staticMetaObjectE@Base 4.80.0
 _ZN6KGAPI25Drive12FileFetchJob19setUpdateViewedDateEb@Base 4.80.0
 _ZN6KGAPI25Drive12FileFetchJob20handleReplyWithItemsEPK13QNetworkReplyRK10QByteArray@Base 4.80.0
 _ZN6KGAPI25Drive12FileFetchJob5startEv@Base 4.80.0
 _ZN6KGAPI25Drive12FileFetchJob9setFieldsEy@Base 4.80.0
 _ZN6KGAPI25Drive12FileFetchJobC1ERK11QStringListRK14QSharedPointerINS_7AccountEEP7QObject@Base 4.80.0
 _ZN6KGAPI25Drive12FileFetchJobC1ERK14QSharedPointerINS_7AccountEEP7QObject@Base 4.80.0
 _ZN6KGAPI25Drive12FileFetchJobC1ERK7QStringRK14QSharedPointerINS_7AccountEEP7QObject@Base 4.80.0
 _ZN6KGAPI25Drive12FileFetchJobC1ERKNS0_15FileSearchQueryERK14QSharedPointerINS_7AccountEEP7QObject@Base 4.80.0
 _ZN6KGAPI25Drive12FileFetchJobC2ERK11QStringListRK14QSharedPointerINS_7AccountEEP7QObject@Base 4.80.0
 _ZN6KGAPI25Drive12FileFetchJobC2ERK14QSharedPointerINS_7AccountEEP7QObject@Base 4.80.0
 _ZN6KGAPI25Drive12FileFetchJobC2ERK7QStringRK14QSharedPointerINS_7AccountEEP7QObject@Base 4.80.0
 _ZN6KGAPI25Drive12FileFetchJobC2ERKNS0_15FileSearchQueryERK14QSharedPointerINS_7AccountEEP7QObject@Base 4.80.0
 _ZN6KGAPI25Drive12FileFetchJobD0Ev@Base 4.80.0
 _ZN6KGAPI25Drive12FileFetchJobD1Ev@Base 4.80.0
 _ZN6KGAPI25Drive12FileFetchJobD2Ev@Base 4.80.0
 _ZN6KGAPI25Drive12FileTouchJob11qt_metacallEN11QMetaObject4CallEiPPv@Base 4.80.0
 _ZN6KGAPI25Drive12FileTouchJob11qt_metacastEPKc@Base 4.80.0
 _ZN6KGAPI25Drive12FileTouchJob16staticMetaObjectE@Base 4.80.0
 _ZN6KGAPI25Drive12FileTouchJob3urlERK7QString@Base 4.80.0
 _ZN6KGAPI25Drive12FileTouchJobC1ERK11QStringListRK14QSharedPointerINS_7AccountEEP7QObject@Base 4.80.0
 _ZN6KGAPI25Drive12FileTouchJobC1ERK14QSharedPointerINS0_4FileEERKS2_INS_7AccountEEP7QObject@Base 4.80.0
 _ZN6KGAPI25Drive12FileTouchJobC1ERK5QListI14QSharedPointerINS0_4FileEEERKS3_INS_7AccountEEP7QObject@Base 4.80.0
 _ZN6KGAPI25Drive12FileTouchJobC1ERK7QStringRK14QSharedPointerINS_7AccountEEP7QObject@Base 4.80.0
 _ZN6KGAPI25Drive12FileTouchJobC2ERK11QStringListRK14QSharedPointerINS_7AccountEEP7QObject@Base 4.80.0
 _ZN6KGAPI25Drive12FileTouchJobC2ERK14QSharedPointerINS0_4FileEERKS2_INS_7AccountEEP7QObject@Base 4.80.0
 _ZN6KGAPI25Drive12FileTouchJobC2ERK5QListI14QSharedPointerINS0_4FileEEERKS3_INS_7AccountEEP7QObject@Base 4.80.0
 _ZN6KGAPI25Drive12FileTouchJobC2ERK7QStringRK14QSharedPointerINS_7AccountEEP7QObject@Base 4.80.0
 _ZN6KGAPI25Drive12FileTouchJobD0Ev@Base 4.80.0
 _ZN6KGAPI25Drive12FileTouchJobD1Ev@Base 4.80.0
 _ZN6KGAPI25Drive12FileTouchJobD2Ev@Base 4.80.0
 _ZN6KGAPI25Drive12FileTrashJob11qt_metacallEN11QMetaObject4CallEiPPv@Base 4.80.0
 _ZN6KGAPI25Drive12FileTrashJob11qt_metacastEPKc@Base 4.80.0
 _ZN6KGAPI25Drive12FileTrashJob15dispatchRequestEP21QNetworkAccessManagerRK15QNetworkRequestRK10QByteArrayRK7QString@Base 4.80.0
 _ZN6KGAPI25Drive12FileTrashJob16staticMetaObjectE@Base 4.80.0
 _ZN6KGAPI25Drive12FileTrashJob3urlERK7QString@Base 4.80.0
 _ZN6KGAPI25Drive12FileTrashJobC1ERK11QStringListRK14QSharedPointerINS_7AccountEEP7QObject@Base 4.80.0
 _ZN6KGAPI25Drive12FileTrashJobC1ERK14QSharedPointerINS0_4FileEERKS2_INS_7AccountEEP7QObject@Base 4.80.0
 _ZN6KGAPI25Drive12FileTrashJobC1ERK5QListI14QSharedPointerINS0_4FileEEERKS3_INS_7AccountEEP7QObject@Base 4.80.0
 _ZN6KGAPI25Drive12FileTrashJobC1ERK7QStringRK14QSharedPointerINS_7AccountEEP7QObject@Base 4.80.0
 _ZN6KGAPI25Drive12FileTrashJobC2ERK11QStringListRK14QSharedPointerINS_7AccountEEP7QObject@Base 4.80.0
 _ZN6KGAPI25Drive12FileTrashJobC2ERK14QSharedPointerINS0_4FileEERKS2_INS_7AccountEEP7QObject@Base 4.80.0
 _ZN6KGAPI25Drive12FileTrashJobC2ERK5QListI14QSharedPointerINS0_4FileEEERKS3_INS_7AccountEEP7QObject@Base 4.80.0
 _ZN6KGAPI25Drive12FileTrashJobC2ERK7QStringRK14QSharedPointerINS_7AccountEEP7QObject@Base 4.80.0
 _ZN6KGAPI25Drive12FileTrashJobD0Ev@Base 4.80.0
 _ZN6KGAPI25Drive12FileTrashJobD1Ev@Base 4.80.0
 _ZN6KGAPI25Drive12FileTrashJobD2Ev@Base 4.80.0
 _ZN6KGAPI25Drive13AboutFetchJob11qt_metacallEN11QMetaObject4CallEiPPv@Base 4.80.0
 _ZN6KGAPI25Drive13AboutFetchJob11qt_metacastEPKc@Base 4.80.0
 _ZN6KGAPI25Drive13AboutFetchJob16setStartChangeIdEx@Base 4.80.0
 _ZN6KGAPI25Drive13AboutFetchJob16staticMetaObjectE@Base 4.80.0
 _ZN6KGAPI25Drive13AboutFetchJob19setMaxChangeIdCountEx@Base 4.80.0
 _ZN6KGAPI25Drive13AboutFetchJob20handleReplyWithItemsEPK13QNetworkReplyRK10QByteArray@Base 4.80.0
 _ZN6KGAPI25Drive13AboutFetchJob20setIncludeSubscribedEb@Base 4.80.0
 _ZN6KGAPI25Drive13AboutFetchJob5startEv@Base 4.80.0
 _ZN6KGAPI25Drive13AboutFetchJobC1ERK14QSharedPointerINS_7AccountEEP7QObject@Base 4.80.0
 _ZN6KGAPI25Drive13AboutFetchJobC2ERK14QSharedPointerINS_7AccountEEP7QObject@Base 4.80.0
 _ZN6KGAPI25Drive13AboutFetchJobD0Ev@Base 4.80.0
 _ZN6KGAPI25Drive13AboutFetchJobD1Ev@Base 4.80.0
 _ZN6KGAPI25Drive13AboutFetchJobD2Ev@Base 4.80.0
 _ZN6KGAPI25Drive13FileCreateJob11qt_metacallEN11QMetaObject4CallEiPPv@Base 4.80.0
 _ZN6KGAPI25Drive13FileCreateJob11qt_metacastEPKc@Base 4.80.0
 _ZN6KGAPI25Drive13FileCreateJob16staticMetaObjectE@Base 4.80.0
 _ZN6KGAPI25Drive13FileCreateJob8dispatchEP21QNetworkAccessManagerRK15QNetworkRequestRK10QByteArray@Base 4.80.0
 _ZN6KGAPI25Drive13FileCreateJob9createUrlERK7QStringRK14QSharedPointerINS0_4FileEE@Base 4.80.0
 _ZN6KGAPI25Drive13FileCreateJobC1ERK11QStringListRK14QSharedPointerINS_7AccountEEP7QObject@Base 4.80.0
 _ZN6KGAPI25Drive13FileCreateJobC1ERK14QSharedPointerINS0_4FileEERKS2_INS_7AccountEEP7QObject@Base 4.80.0
 _ZN6KGAPI25Drive13FileCreateJobC1ERK4QMapI7QString14QSharedPointerINS0_4FileEEERKS4_INS_7AccountEEP7QObject@Base 4.80.0
 _ZN6KGAPI25Drive13FileCreateJobC1ERK5QListI14QSharedPointerINS0_4FileEEERKS3_INS_7AccountEEP7QObject@Base 4.80.0
 _ZN6KGAPI25Drive13FileCreateJobC1ERK7QStringRK14QSharedPointerINS0_4FileEERKS5_INS_7AccountEEP7QObject@Base 4.80.0
 _ZN6KGAPI25Drive13FileCreateJobC1ERK7QStringRK14QSharedPointerINS_7AccountEEP7QObject@Base 4.80.0
 _ZN6KGAPI25Drive13FileCreateJobC2ERK11QStringListRK14QSharedPointerINS_7AccountEEP7QObject@Base 4.80.0
 _ZN6KGAPI25Drive13FileCreateJobC2ERK14QSharedPointerINS0_4FileEERKS2_INS_7AccountEEP7QObject@Base 4.80.0
 _ZN6KGAPI25Drive13FileCreateJobC2ERK4QMapI7QString14QSharedPointerINS0_4FileEEERKS4_INS_7AccountEEP7QObject@Base 4.80.0
 _ZN6KGAPI25Drive13FileCreateJobC2ERK5QListI14QSharedPointerINS0_4FileEEERKS3_INS_7AccountEEP7QObject@Base 4.80.0
 _ZN6KGAPI25Drive13FileCreateJobC2ERK7QStringRK14QSharedPointerINS0_4FileEERKS5_INS_7AccountEEP7QObject@Base 4.80.0
 _ZN6KGAPI25Drive13FileCreateJobC2ERK7QStringRK14QSharedPointerINS_7AccountEEP7QObject@Base 4.80.0
 _ZN6KGAPI25Drive13FileCreateJobD0Ev@Base 4.80.0
 _ZN6KGAPI25Drive13FileCreateJobD1Ev@Base 4.80.0
 _ZN6KGAPI25Drive13FileCreateJobD2Ev@Base 4.80.0
 _ZN6KGAPI25Drive13FileDeleteJob11qt_metacallEN11QMetaObject4CallEiPPv@Base 4.80.0
 _ZN6KGAPI25Drive13FileDeleteJob11qt_metacastEPKc@Base 4.80.0
 _ZN6KGAPI25Drive13FileDeleteJob16staticMetaObjectE@Base 4.80.0
 _ZN6KGAPI25Drive13FileDeleteJob5startEv@Base 4.80.0
 _ZN6KGAPI25Drive13FileDeleteJobC1ERK11QStringListRK14QSharedPointerINS_7AccountEEP7QObject@Base 4.80.0
 _ZN6KGAPI25Drive13FileDeleteJobC1ERK14QSharedPointerINS0_4FileEERKS2_INS_7AccountEEP7QObject@Base 4.80.0
 _ZN6KGAPI25Drive13FileDeleteJobC1ERK5QListI14QSharedPointerINS0_4FileEEERKS3_INS_7AccountEEP7QObject@Base 4.80.0
 _ZN6KGAPI25Drive13FileDeleteJobC1ERK7QStringRK14QSharedPointerINS_7AccountEEP7QObject@Base 4.80.0
 _ZN6KGAPI25Drive13FileDeleteJobC2ERK11QStringListRK14QSharedPointerINS_7AccountEEP7QObject@Base 4.80.0
 _ZN6KGAPI25Drive13FileDeleteJobC2ERK14QSharedPointerINS0_4FileEERKS2_INS_7AccountEEP7QObject@Base 4.80.0
 _ZN6KGAPI25Drive13FileDeleteJobC2ERK5QListI14QSharedPointerINS0_4FileEEERKS3_INS_7AccountEEP7QObject@Base 4.80.0
 _ZN6KGAPI25Drive13FileDeleteJobC2ERK7QStringRK14QSharedPointerINS_7AccountEEP7QObject@Base 4.80.0
 _ZN6KGAPI25Drive13FileDeleteJobD0Ev@Base 4.80.0
 _ZN6KGAPI25Drive13FileDeleteJobD1Ev@Base 4.80.0
 _ZN6KGAPI25Drive13FileDeleteJobD2Ev@Base 4.80.0
 _ZN6KGAPI25Drive13FileModifyJob11qt_metacallEN11QMetaObject4CallEiPPv@Base 4.80.0
 _ZN6KGAPI25Drive13FileModifyJob11qt_metacastEPKc@Base 4.80.0
 _ZN6KGAPI25Drive13FileModifyJob16staticMetaObjectE@Base 4.80.0
 _ZN6KGAPI25Drive13FileModifyJob19setUpdateViewedDateEb@Base 4.80.0
 _ZN6KGAPI25Drive13FileModifyJob20setCreateNewRevisionEb@Base 4.80.0
 _ZN6KGAPI25Drive13FileModifyJob21setUpdateModifiedDateEb@Base 4.80.0
 _ZN6KGAPI25Drive13FileModifyJob8dispatchEP21QNetworkAccessManagerRK15QNetworkRequestRK10QByteArray@Base 4.80.0
 _ZN6KGAPI25Drive13FileModifyJob9createUrlERK7QStringRK14QSharedPointerINS0_4FileEE@Base 4.80.0
 _ZN6KGAPI25Drive13FileModifyJobC1ERK14QSharedPointerINS0_4FileEERKS2_INS_7AccountEEP7QObject@Base 4.80.0
 _ZN6KGAPI25Drive13FileModifyJobC1ERK4QMapI7QString14QSharedPointerINS0_4FileEEERKS4_INS_7AccountEEP7QObject@Base 4.80.0
 _ZN6KGAPI25Drive13FileModifyJobC1ERK4QMapI7QStringS3_ERK14QSharedPointerINS_7AccountEEP7QObject@Base 4.80.0
 _ZN6KGAPI25Drive13FileModifyJobC1ERK7QStringRK14QSharedPointerINS0_4FileEERKS5_INS_7AccountEEP7QObject@Base 4.80.0
 _ZN6KGAPI25Drive13FileModifyJobC1ERK7QStringS4_RK14QSharedPointerINS_7AccountEEP7QObject@Base 4.80.0
 _ZN6KGAPI25Drive13FileModifyJobC2ERK14QSharedPointerINS0_4FileEERKS2_INS_7AccountEEP7QObject@Base 4.80.0
 _ZN6KGAPI25Drive13FileModifyJobC2ERK4QMapI7QString14QSharedPointerINS0_4FileEEERKS4_INS_7AccountEEP7QObject@Base 4.80.0
 _ZN6KGAPI25Drive13FileModifyJobC2ERK4QMapI7QStringS3_ERK14QSharedPointerINS_7AccountEEP7QObject@Base 4.80.0
 _ZN6KGAPI25Drive13FileModifyJobC2ERK7QStringRK14QSharedPointerINS0_4FileEERKS5_INS_7AccountEEP7QObject@Base 4.80.0
 _ZN6KGAPI25Drive13FileModifyJobC2ERK7QStringS4_RK14QSharedPointerINS_7AccountEEP7QObject@Base 4.80.0
 _ZN6KGAPI25Drive13FileModifyJobD0Ev@Base 4.80.0
 _ZN6KGAPI25Drive13FileModifyJobD1Ev@Base 4.80.0
 _ZN6KGAPI25Drive13FileModifyJobD2Ev@Base 4.80.0
 _ZN6KGAPI25Drive14ChangeFetchJob11qt_metacallEN11QMetaObject4CallEiPPv@Base 4.80.0
 _ZN6KGAPI25Drive14ChangeFetchJob11qt_metacastEPKc@Base 4.80.0
 _ZN6KGAPI25Drive14ChangeFetchJob13setMaxResultsEi@Base 4.80.0
 _ZN6KGAPI25Drive14ChangeFetchJob16setStartChangeIdEx@Base 4.80.0
 _ZN6KGAPI25Drive14ChangeFetchJob16staticMetaObjectE@Base 4.80.0
 _ZN6KGAPI25Drive14ChangeFetchJob17setIncludeDeletedEb@Base 4.80.0
 _ZN6KGAPI25Drive14ChangeFetchJob20handleReplyWithItemsEPK13QNetworkReplyRK10QByteArray@Base 4.80.0
 _ZN6KGAPI25Drive14ChangeFetchJob20setIncludeSubscribedEb@Base 4.80.0
 _ZN6KGAPI25Drive14ChangeFetchJob5startEv@Base 4.80.0
 _ZN6KGAPI25Drive14ChangeFetchJobC1ERK14QSharedPointerINS_7AccountEEP7QObject@Base 4.80.0
 _ZN6KGAPI25Drive14ChangeFetchJobC1ERK7QStringRK14QSharedPointerINS_7AccountEEP7QObject@Base 4.80.0
 _ZN6KGAPI25Drive14ChangeFetchJobC2ERK14QSharedPointerINS_7AccountEEP7QObject@Base 4.80.0
 _ZN6KGAPI25Drive14ChangeFetchJobC2ERK7QStringRK14QSharedPointerINS_7AccountEEP7QObject@Base 4.80.0
 _ZN6KGAPI25Drive14ChangeFetchJobD0Ev@Base 4.80.0
 _ZN6KGAPI25Drive14ChangeFetchJobD1Ev@Base 4.80.0
 _ZN6KGAPI25Drive14ChangeFetchJobD2Ev@Base 4.80.0
 _ZN6KGAPI25Drive14ChildReference12fromJSONFeedERK10QByteArrayRNS_8FeedDataE@Base 4.80.0
 _ZN6KGAPI25Drive14ChildReference6toJSONERK14QSharedPointerIS1_E@Base 4.80.0
 _ZN6KGAPI25Drive14ChildReference8fromJSONERK10QByteArray@Base 4.80.0
 _ZN6KGAPI25Drive14ChildReferenceC1ERK7QString@Base 4.80.0
 _ZN6KGAPI25Drive14ChildReferenceC1ERKS1_@Base 4.80.0
 _ZN6KGAPI25Drive14ChildReferenceC2ERK7QString@Base 4.80.0
 _ZN6KGAPI25Drive14ChildReferenceC2ERKS1_@Base 4.80.0
 _ZN6KGAPI25Drive14ChildReferenceD0Ev@Base 4.80.0
 _ZN6KGAPI25Drive14ChildReferenceD1Ev@Base 4.80.0
 _ZN6KGAPI25Drive14ChildReferenceD2Ev@Base 4.80.0
 _ZN6KGAPI25Drive14FileUntrashJob11qt_metacallEN11QMetaObject4CallEiPPv@Base 4.80.0
 _ZN6KGAPI25Drive14FileUntrashJob11qt_metacastEPKc@Base 4.80.0
 _ZN6KGAPI25Drive14FileUntrashJob15dispatchRequestEP21QNetworkAccessManagerRK15QNetworkRequestRK10QByteArrayRK7QString@Base 4.80.0
 _ZN6KGAPI25Drive14FileUntrashJob16staticMetaObjectE@Base 4.80.0
 _ZN6KGAPI25Drive14FileUntrashJob3urlERK7QString@Base 4.80.0
 _ZN6KGAPI25Drive14FileUntrashJobC1ERK11QStringListRK14QSharedPointerINS_7AccountEEP7QObject@Base 4.80.0
 _ZN6KGAPI25Drive14FileUntrashJobC1ERK14QSharedPointerINS0_4FileEERKS2_INS_7AccountEEP7QObject@Base 4.80.0
 _ZN6KGAPI25Drive14FileUntrashJobC1ERK5QListI14QSharedPointerINS0_4FileEEERKS3_INS_7AccountEEP7QObject@Base 4.80.0
 _ZN6KGAPI25Drive14FileUntrashJobC1ERK7QStringRK14QSharedPointerINS_7AccountEEP7QObject@Base 4.80.0
 _ZN6KGAPI25Drive14FileUntrashJobC2ERK11QStringListRK14QSharedPointerINS_7AccountEEP7QObject@Base 4.80.0
 _ZN6KGAPI25Drive14FileUntrashJobC2ERK14QSharedPointerINS0_4FileEERKS2_INS_7AccountEEP7QObject@Base 4.80.0
 _ZN6KGAPI25Drive14FileUntrashJobC2ERK5QListI14QSharedPointerINS0_4FileEEERKS3_INS_7AccountEEP7QObject@Base 4.80.0
 _ZN6KGAPI25Drive14FileUntrashJobC2ERK7QStringRK14QSharedPointerINS_7AccountEEP7QObject@Base 4.80.0
 _ZN6KGAPI25Drive14FileUntrashJobD0Ev@Base 4.80.0
 _ZN6KGAPI25Drive14FileUntrashJobD1Ev@Base 4.80.0
 _ZN6KGAPI25Drive14FileUntrashJobD2Ev@Base 4.80.0
 _ZN6KGAPI25Drive15FileSearchQuery8addQueryENS1_5FieldENS1_15CompareOperatorERK8QVariant@Base 4.80.0
 _ZN6KGAPI25Drive15FileSearchQuery8addQueryERKS1_@Base 4.80.0
 _ZN6KGAPI25Drive15FileSearchQueryC1ENS1_13LogicOperatorE@Base 4.80.0
 _ZN6KGAPI25Drive15FileSearchQueryC1ERKS1_@Base 4.80.0
 _ZN6KGAPI25Drive15FileSearchQueryC2ENS1_13LogicOperatorE@Base 4.80.0
 _ZN6KGAPI25Drive15FileSearchQueryC2ERKS1_@Base 4.80.0
 _ZN6KGAPI25Drive15FileSearchQueryD1Ev@Base 4.80.0
 _ZN6KGAPI25Drive15FileSearchQueryD2Ev@Base 4.80.0
 _ZN6KGAPI25Drive15FileSearchQueryaSERKS1_@Base 4.80.0
 _ZN6KGAPI25Drive15ParentReference12fromJSONFeedERK10QByteArray@Base 4.80.0
 _ZN6KGAPI25Drive15ParentReference6toJSONERK14QSharedPointerIS1_E@Base 4.80.0
 _ZN6KGAPI25Drive15ParentReference8fromJSONERK10QByteArray@Base 4.80.0
 _ZN6KGAPI25Drive15ParentReferenceC1ERK7QString@Base 4.80.0
 _ZN6KGAPI25Drive15ParentReferenceC1ERKS1_@Base 4.80.0
 _ZN6KGAPI25Drive15ParentReferenceC2ERK7QString@Base 4.80.0
 _ZN6KGAPI25Drive15ParentReferenceC2ERKS1_@Base 4.80.0
 _ZN6KGAPI25Drive15ParentReferenceD0Ev@Base 4.80.0
 _ZN6KGAPI25Drive15ParentReferenceD1Ev@Base 4.80.0
 _ZN6KGAPI25Drive15ParentReferenceD2Ev@Base 4.80.0
 _ZN6KGAPI25Drive16RevisionFetchJob11qt_metacallEN11QMetaObject4CallEiPPv@Base 4.80.0
 _ZN6KGAPI25Drive16RevisionFetchJob11qt_metacastEPKc@Base 4.80.0
 _ZN6KGAPI25Drive16RevisionFetchJob16staticMetaObjectE@Base 4.80.0
 _ZN6KGAPI25Drive16RevisionFetchJob20handleReplyWithItemsEPK13QNetworkReplyRK10QByteArray@Base 4.80.0
 _ZN6KGAPI25Drive16RevisionFetchJob5startEv@Base 4.80.0
 _ZN6KGAPI25Drive16RevisionFetchJobC1ERK7QStringRK14QSharedPointerINS_7AccountEEP7QObject@Base 4.80.0
 _ZN6KGAPI25Drive16RevisionFetchJobC1ERK7QStringS4_RK14QSharedPointerINS_7AccountEEP7QObject@Base 4.80.0
 _ZN6KGAPI25Drive16RevisionFetchJobC2ERK7QStringRK14QSharedPointerINS_7AccountEEP7QObject@Base 4.80.0
 _ZN6KGAPI25Drive16RevisionFetchJobC2ERK7QStringS4_RK14QSharedPointerINS_7AccountEEP7QObject@Base 4.80.0
 _ZN6KGAPI25Drive16RevisionFetchJobD0Ev@Base 4.80.0
 _ZN6KGAPI25Drive16RevisionFetchJobD1Ev@Base 4.80.0
 _ZN6KGAPI25Drive16RevisionFetchJobD2Ev@Base 4.80.0
 _ZN6KGAPI25Drive17RevisionDeleteJob11qt_metacallEN11QMetaObject4CallEiPPv@Base 4.80.0
 _ZN6KGAPI25Drive17RevisionDeleteJob11qt_metacastEPKc@Base 4.80.0
 _ZN6KGAPI25Drive17RevisionDeleteJob16staticMetaObjectE@Base 4.80.0
 _ZN6KGAPI25Drive17RevisionDeleteJob5startEv@Base 4.80.0
 _ZN6KGAPI25Drive17RevisionDeleteJobC1ERK7QStringRK11QStringListRK14QSharedPointerINS_7AccountEEP7QObject@Base 4.80.0
 _ZN6KGAPI25Drive17RevisionDeleteJobC1ERK7QStringRK14QSharedPointerINS0_8RevisionEERKS5_INS_7AccountEEP7QObject@Base 4.80.0
 _ZN6KGAPI25Drive17RevisionDeleteJobC1ERK7QStringRK5QListI14QSharedPointerINS0_8RevisionEEERKS6_INS_7AccountEEP7QObject@Base 4.80.0
 _ZN6KGAPI25Drive17RevisionDeleteJobC1ERK7QStringS4_RK14QSharedPointerINS_7AccountEEP7QObject@Base 4.80.0
 _ZN6KGAPI25Drive17RevisionDeleteJobC2ERK7QStringRK11QStringListRK14QSharedPointerINS_7AccountEEP7QObject@Base 4.80.0
 _ZN6KGAPI25Drive17RevisionDeleteJobC2ERK7QStringRK14QSharedPointerINS0_8RevisionEERKS5_INS_7AccountEEP7QObject@Base 4.80.0
 _ZN6KGAPI25Drive17RevisionDeleteJobC2ERK7QStringRK5QListI14QSharedPointerINS0_8RevisionEEERKS6_INS_7AccountEEP7QObject@Base 4.80.0
 _ZN6KGAPI25Drive17RevisionDeleteJobC2ERK7QStringS4_RK14QSharedPointerINS_7AccountEEP7QObject@Base 4.80.0
 _ZN6KGAPI25Drive17RevisionDeleteJobD0Ev@Base 4.80.0
 _ZN6KGAPI25Drive17RevisionDeleteJobD1Ev@Base 4.80.0
 _ZN6KGAPI25Drive17RevisionDeleteJobD2Ev@Base 4.80.0
 _ZN6KGAPI25Drive17RevisionModifyJob11qt_metacallEN11QMetaObject4CallEiPPv@Base 4.80.0
 _ZN6KGAPI25Drive17RevisionModifyJob11qt_metacastEPKc@Base 4.80.0
 _ZN6KGAPI25Drive17RevisionModifyJob16staticMetaObjectE@Base 4.80.0
 _ZN6KGAPI25Drive17RevisionModifyJob20handleReplyWithItemsEPK13QNetworkReplyRK10QByteArray@Base 4.80.0
 _ZN6KGAPI25Drive17RevisionModifyJob5startEv@Base 4.80.0
 _ZN6KGAPI25Drive17RevisionModifyJobC1ERK7QStringRK14QSharedPointerINS0_8RevisionEERKS5_INS_7AccountEEP7QObject@Base 4.80.0
 _ZN6KGAPI25Drive17RevisionModifyJobC1ERK7QStringRK5QListI14QSharedPointerINS0_8RevisionEEERKS6_INS_7AccountEEP7QObject@Base 4.80.0
 _ZN6KGAPI25Drive17RevisionModifyJobC2ERK7QStringRK14QSharedPointerINS0_8RevisionEERKS5_INS_7AccountEEP7QObject@Base 4.80.0
 _ZN6KGAPI25Drive17RevisionModifyJobC2ERK7QStringRK5QListI14QSharedPointerINS0_8RevisionEEERKS6_INS_7AccountEEP7QObject@Base 4.80.0
 _ZN6KGAPI25Drive17RevisionModifyJobD0Ev@Base 4.80.0
 _ZN6KGAPI25Drive17RevisionModifyJobD1Ev@Base 4.80.0
 _ZN6KGAPI25Drive17RevisionModifyJobD2Ev@Base 4.80.0
 _ZN6KGAPI25Drive18PermissionFetchJob11qt_metacallEN11QMetaObject4CallEiPPv@Base 4.80.0
 _ZN6KGAPI25Drive18PermissionFetchJob11qt_metacastEPKc@Base 4.80.0
 _ZN6KGAPI25Drive18PermissionFetchJob16staticMetaObjectE@Base 4.80.0
 _ZN6KGAPI25Drive18PermissionFetchJob20handleReplyWithItemsEPK13QNetworkReplyRK10QByteArray@Base 4.80.0
 _ZN6KGAPI25Drive18PermissionFetchJob5startEv@Base 4.80.0
 _ZN6KGAPI25Drive18PermissionFetchJobC1ERK14QSharedPointerINS0_4FileEERK7QStringRKS2_INS_7AccountEEP7QObject@Base 4.80.0
 _ZN6KGAPI25Drive18PermissionFetchJobC1ERK14QSharedPointerINS0_4FileEERKS2_INS_7AccountEEP7QObject@Base 4.80.0
 _ZN6KGAPI25Drive18PermissionFetchJobC1ERK7QStringRK14QSharedPointerINS_7AccountEEP7QObject@Base 4.80.0
 _ZN6KGAPI25Drive18PermissionFetchJobC1ERK7QStringS4_RK14QSharedPointerINS_7AccountEEP7QObject@Base 4.80.0
 _ZN6KGAPI25Drive18PermissionFetchJobC2ERK14QSharedPointerINS0_4FileEERK7QStringRKS2_INS_7AccountEEP7QObject@Base 4.80.0
 _ZN6KGAPI25Drive18PermissionFetchJobC2ERK14QSharedPointerINS0_4FileEERKS2_INS_7AccountEEP7QObject@Base 4.80.0
 _ZN6KGAPI25Drive18PermissionFetchJobC2ERK7QStringRK14QSharedPointerINS_7AccountEEP7QObject@Base 4.80.0
 _ZN6KGAPI25Drive18PermissionFetchJobC2ERK7QStringS4_RK14QSharedPointerINS_7AccountEEP7QObject@Base 4.80.0
 _ZN6KGAPI25Drive18PermissionFetchJobD0Ev@Base 4.80.0
 _ZN6KGAPI25Drive18PermissionFetchJobD1Ev@Base 4.80.0
 _ZN6KGAPI25Drive18PermissionFetchJobD2Ev@Base 4.80.0
 _ZN6KGAPI25Drive19FileAbstractDataJob10setConvertEb@Base 4.80.0
 _ZN6KGAPI25Drive19FileAbstractDataJob11qt_metacallEN11QMetaObject4CallEiPPv@Base 4.80.0
 _ZN6KGAPI25Drive19FileAbstractDataJob11qt_metacastEPKc@Base 4.80.0
 _ZN6KGAPI25Drive19FileAbstractDataJob14setOcrLanguageERK7QString@Base 4.80.0
 _ZN6KGAPI25Drive19FileAbstractDataJob16staticMetaObjectE@Base 4.80.0
 _ZN6KGAPI25Drive19FileAbstractDataJob20setTimedTextLanguageERK7QString@Base 4.80.0
 _ZN6KGAPI25Drive19FileAbstractDataJob21setTimedTextTrackNameERK7QString@Base 4.80.0
 _ZN6KGAPI25Drive19FileAbstractDataJob6setOcrEb@Base 4.80.0
 _ZN6KGAPI25Drive19FileAbstractDataJob9setPinnedEb@Base 4.80.0
 _ZN6KGAPI25Drive19FileAbstractDataJob9updateUrlER4QUrl@Base 4.80.0
 _ZN6KGAPI25Drive19FileAbstractDataJobC1ERK14QSharedPointerINS_7AccountEEP7QObject@Base 4.80.0
 _ZN6KGAPI25Drive19FileAbstractDataJobC2ERK14QSharedPointerINS_7AccountEEP7QObject@Base 4.80.0
 _ZN6KGAPI25Drive19FileAbstractDataJobD0Ev@Base 4.80.0
 _ZN6KGAPI25Drive19FileAbstractDataJobD1Ev@Base 4.80.0
 _ZN6KGAPI25Drive19FileAbstractDataJobD2Ev@Base 4.80.0
 _ZN6KGAPI25Drive19FileFetchContentJob11handleReplyEPK13QNetworkReplyRK10QByteArray@Base 4.80.0
 _ZN6KGAPI25Drive19FileFetchContentJob11qt_metacallEN11QMetaObject4CallEiPPv@Base 4.80.0
 _ZN6KGAPI25Drive19FileFetchContentJob11qt_metacastEPKc@Base 4.80.0
 _ZN6KGAPI25Drive19FileFetchContentJob15dispatchRequestEP21QNetworkAccessManagerRK15QNetworkRequestRK10QByteArrayRK7QString@Base 4.80.0
 _ZN6KGAPI25Drive19FileFetchContentJob16staticMetaObjectE@Base 4.80.0
 _ZN6KGAPI25Drive19FileFetchContentJob20handleReplyWithItemsEPK13QNetworkReplyRK10QByteArray@Base 4.80.0
 _ZN6KGAPI25Drive19FileFetchContentJob5startEv@Base 4.80.0
 _ZN6KGAPI25Drive19FileFetchContentJobC1ERK14QSharedPointerINS0_4FileEERKS2_INS_7AccountEEP7QObject@Base 4.80.0
 _ZN6KGAPI25Drive19FileFetchContentJobC1ERK4QUrlRK14QSharedPointerINS_7AccountEEP7QObject@Base 4.80.0
 _ZN6KGAPI25Drive19FileFetchContentJobC2ERK14QSharedPointerINS0_4FileEERKS2_INS_7AccountEEP7QObject@Base 4.80.0
 _ZN6KGAPI25Drive19FileFetchContentJobC2ERK4QUrlRK14QSharedPointerINS_7AccountEEP7QObject@Base 4.80.0
 _ZN6KGAPI25Drive19FileFetchContentJobD0Ev@Base 4.80.0
 _ZN6KGAPI25Drive19FileFetchContentJobD1Ev@Base 4.80.0
 _ZN6KGAPI25Drive19FileFetchContentJobD2Ev@Base 4.80.0
 _ZN6KGAPI25Drive19PermissionCreateJob11qt_metacallEN11QMetaObject4CallEiPPv@Base 4.80.0
 _ZN6KGAPI25Drive19PermissionCreateJob11qt_metacastEPKc@Base 4.80.0
 _ZN6KGAPI25Drive19PermissionCreateJob16staticMetaObjectE@Base 4.80.0
 _ZN6KGAPI25Drive19PermissionCreateJob20handleReplyWithItemsEPK13QNetworkReplyRK10QByteArray@Base 4.80.0
 _ZN6KGAPI25Drive19PermissionCreateJob5startEv@Base 4.80.0
 _ZN6KGAPI25Drive19PermissionCreateJobC1ERK7QStringRK14QSharedPointerINS0_10PermissionEERKS5_INS_7AccountEEP7QObject@Base 4.80.0
 _ZN6KGAPI25Drive19PermissionCreateJobC1ERK7QStringRK5QListI14QSharedPointerINS0_10PermissionEEERKS6_INS_7AccountEEP7QObject@Base 4.80.0
 _ZN6KGAPI25Drive19PermissionCreateJobC2ERK7QStringRK14QSharedPointerINS0_10PermissionEERKS5_INS_7AccountEEP7QObject@Base 4.80.0
 _ZN6KGAPI25Drive19PermissionCreateJobC2ERK7QStringRK5QListI14QSharedPointerINS0_10PermissionEEERKS6_INS_7AccountEEP7QObject@Base 4.80.0
 _ZN6KGAPI25Drive19PermissionCreateJobD0Ev@Base 4.80.0
 _ZN6KGAPI25Drive19PermissionCreateJobD1Ev@Base 4.80.0
 _ZN6KGAPI25Drive19PermissionCreateJobD2Ev@Base 4.80.0
 _ZN6KGAPI25Drive19PermissionDeleteJob11qt_metacallEN11QMetaObject4CallEiPPv@Base 4.80.0
 _ZN6KGAPI25Drive19PermissionDeleteJob11qt_metacastEPKc@Base 4.80.0
 _ZN6KGAPI25Drive19PermissionDeleteJob16staticMetaObjectE@Base 4.80.0
 _ZN6KGAPI25Drive19PermissionDeleteJob5startEv@Base 4.80.0
 _ZN6KGAPI25Drive19PermissionDeleteJobC1ERK7QStringRK11QStringListRK14QSharedPointerINS_7AccountEEP7QObject@Base 4.80.0
 _ZN6KGAPI25Drive19PermissionDeleteJobC1ERK7QStringRK14QSharedPointerINS0_10PermissionEERKS5_INS_7AccountEEP7QObject@Base 4.80.0
 _ZN6KGAPI25Drive19PermissionDeleteJobC1ERK7QStringRK5QListI14QSharedPointerINS0_10PermissionEEERKS6_INS_7AccountEEP7QObject@Base 4.80.0
 _ZN6KGAPI25Drive19PermissionDeleteJobC1ERK7QStringS4_RK14QSharedPointerINS_7AccountEEP7QObject@Base 4.80.0
 _ZN6KGAPI25Drive19PermissionDeleteJobC2ERK7QStringRK11QStringListRK14QSharedPointerINS_7AccountEEP7QObject@Base 4.80.0
 _ZN6KGAPI25Drive19PermissionDeleteJobC2ERK7QStringRK14QSharedPointerINS0_10PermissionEERKS5_INS_7AccountEEP7QObject@Base 4.80.0
 _ZN6KGAPI25Drive19PermissionDeleteJobC2ERK7QStringRK5QListI14QSharedPointerINS0_10PermissionEEERKS6_INS_7AccountEEP7QObject@Base 4.80.0
 _ZN6KGAPI25Drive19PermissionDeleteJobC2ERK7QStringS4_RK14QSharedPointerINS_7AccountEEP7QObject@Base 4.80.0
 _ZN6KGAPI25Drive19PermissionDeleteJobD0Ev@Base 4.80.0
 _ZN6KGAPI25Drive19PermissionDeleteJobD1Ev@Base 4.80.0
 _ZN6KGAPI25Drive19PermissionDeleteJobD2Ev@Base 4.80.0
 _ZN6KGAPI25Drive19PermissionModifyJob11qt_metacallEN11QMetaObject4CallEiPPv@Base 4.80.0
 _ZN6KGAPI25Drive19PermissionModifyJob11qt_metacastEPKc@Base 4.80.0
 _ZN6KGAPI25Drive19PermissionModifyJob16staticMetaObjectE@Base 4.80.0
 _ZN6KGAPI25Drive19PermissionModifyJob20handleReplyWithItemsEPK13QNetworkReplyRK10QByteArray@Base 4.80.0
 _ZN6KGAPI25Drive19PermissionModifyJob5startEv@Base 4.80.0
 _ZN6KGAPI25Drive19PermissionModifyJobC1ERK7QStringRK14QSharedPointerINS0_10PermissionEERKS5_INS_7AccountEEP7QObject@Base 4.80.0
 _ZN6KGAPI25Drive19PermissionModifyJobC1ERK7QStringRK5QListI14QSharedPointerINS0_10PermissionEEERKS6_INS_7AccountEEP7QObject@Base 4.80.0
 _ZN6KGAPI25Drive19PermissionModifyJobC2ERK7QStringRK14QSharedPointerINS0_10PermissionEERKS5_INS_7AccountEEP7QObject@Base 4.80.0
 _ZN6KGAPI25Drive19PermissionModifyJobC2ERK7QStringRK5QListI14QSharedPointerINS0_10PermissionEEERKS6_INS_7AccountEEP7QObject@Base 4.80.0
 _ZN6KGAPI25Drive19PermissionModifyJobD0Ev@Base 4.80.0
 _ZN6KGAPI25Drive19PermissionModifyJobD1Ev@Base 4.80.0
 _ZN6KGAPI25Drive19PermissionModifyJobD2Ev@Base 4.80.0
 _ZN6KGAPI25Drive21FileAbstractModifyJob11qt_metacallEN11QMetaObject4CallEiPPv@Base 4.80.0
 _ZN6KGAPI25Drive21FileAbstractModifyJob11qt_metacastEPKc@Base 4.80.0
 _ZN6KGAPI25Drive21FileAbstractModifyJob16staticMetaObjectE@Base 4.80.0
 _ZN6KGAPI25Drive21FileAbstractModifyJob20handleReplyWithItemsEPK13QNetworkReplyRK10QByteArray@Base 4.80.0
 _ZN6KGAPI25Drive21FileAbstractModifyJob5startEv@Base 4.80.0
 _ZN6KGAPI25Drive21FileAbstractModifyJobC1ERK11QStringListRK14QSharedPointerINS_7AccountEEP7QObject@Base 4.80.0
 _ZN6KGAPI25Drive21FileAbstractModifyJobC1ERK14QSharedPointerINS0_4FileEERKS2_INS_7AccountEEP7QObject@Base 4.80.0
 _ZN6KGAPI25Drive21FileAbstractModifyJobC1ERK5QListI14QSharedPointerINS0_4FileEEERKS3_INS_7AccountEEP7QObject@Base 4.80.0
 _ZN6KGAPI25Drive21FileAbstractModifyJobC1ERK7QStringRK14QSharedPointerINS_7AccountEEP7QObject@Base 4.80.0
 _ZN6KGAPI25Drive21FileAbstractModifyJobC2ERK11QStringListRK14QSharedPointerINS_7AccountEEP7QObject@Base 4.80.0
 _ZN6KGAPI25Drive21FileAbstractModifyJobC2ERK14QSharedPointerINS0_4FileEERKS2_INS_7AccountEEP7QObject@Base 4.80.0
 _ZN6KGAPI25Drive21FileAbstractModifyJobC2ERK5QListI14QSharedPointerINS0_4FileEEERKS3_INS_7AccountEEP7QObject@Base 4.80.0
 _ZN6KGAPI25Drive21FileAbstractModifyJobC2ERK7QStringRK14QSharedPointerINS_7AccountEEP7QObject@Base 4.80.0
 _ZN6KGAPI25Drive21FileAbstractModifyJobD0Ev@Base 4.80.0
 _ZN6KGAPI25Drive21FileAbstractModifyJobD1Ev@Base 4.80.0
 _ZN6KGAPI25Drive21FileAbstractModifyJobD2Ev@Base 4.80.0
 _ZN6KGAPI25Drive21FileAbstractUploadJob11handleReplyEPK13QNetworkReplyRK10QByteArray@Base 4.80.0
 _ZN6KGAPI25Drive21FileAbstractUploadJob11qt_metacallEN11QMetaObject4CallEiPPv@Base 4.80.0
 _ZN6KGAPI25Drive21FileAbstractUploadJob11qt_metacastEPKc@Base 4.80.0
 _ZN6KGAPI25Drive21FileAbstractUploadJob15dispatchRequestEP21QNetworkAccessManagerRK15QNetworkRequestRK10QByteArrayRK7QString@Base 4.80.0
 _ZN6KGAPI25Drive21FileAbstractUploadJob16staticMetaObjectE@Base 4.80.0
 _ZN6KGAPI25Drive21FileAbstractUploadJob28setUseContentAsIndexableTextEb@Base 4.80.0
 _ZN6KGAPI25Drive21FileAbstractUploadJob5startEv@Base 4.80.0
 _ZN6KGAPI25Drive21FileAbstractUploadJobC1ERK11QStringListRK14QSharedPointerINS_7AccountEEP7QObject@Base 4.80.0
 _ZN6KGAPI25Drive21FileAbstractUploadJobC1ERK14QSharedPointerINS0_4FileEERKS2_INS_7AccountEEP7QObject@Base 4.80.0
 _ZN6KGAPI25Drive21FileAbstractUploadJobC1ERK4QMapI7QString14QSharedPointerINS0_4FileEEERKS4_INS_7AccountEEP7QObject@Base 4.80.0
 _ZN6KGAPI25Drive21FileAbstractUploadJobC1ERK5QListI14QSharedPointerINS0_4FileEEERKS3_INS_7AccountEEP7QObject@Base 4.80.0
 _ZN6KGAPI25Drive21FileAbstractUploadJobC1ERK7QStringRK14QSharedPointerINS0_4FileEERKS5_INS_7AccountEEP7QObject@Base 4.80.0
 _ZN6KGAPI25Drive21FileAbstractUploadJobC1ERK7QStringRK14QSharedPointerINS_7AccountEEP7QObject@Base 4.80.0
 _ZN6KGAPI25Drive21FileAbstractUploadJobC2ERK11QStringListRK14QSharedPointerINS_7AccountEEP7QObject@Base 4.80.0
 _ZN6KGAPI25Drive21FileAbstractUploadJobC2ERK14QSharedPointerINS0_4FileEERKS2_INS_7AccountEEP7QObject@Base 4.80.0
 _ZN6KGAPI25Drive21FileAbstractUploadJobC2ERK4QMapI7QString14QSharedPointerINS0_4FileEEERKS4_INS_7AccountEEP7QObject@Base 4.80.0
 _ZN6KGAPI25Drive21FileAbstractUploadJobC2ERK5QListI14QSharedPointerINS0_4FileEEERKS3_INS_7AccountEEP7QObject@Base 4.80.0
 _ZN6KGAPI25Drive21FileAbstractUploadJobC2ERK7QStringRK14QSharedPointerINS0_4FileEERKS5_INS_7AccountEEP7QObject@Base 4.80.0
 _ZN6KGAPI25Drive21FileAbstractUploadJobC2ERK7QStringRK14QSharedPointerINS_7AccountEEP7QObject@Base 4.80.0
 _ZN6KGAPI25Drive21FileAbstractUploadJobD0Ev@Base 4.80.0
 _ZN6KGAPI25Drive21FileAbstractUploadJobD1Ev@Base 4.80.0
 _ZN6KGAPI25Drive21FileAbstractUploadJobD2Ev@Base 4.80.0
 _ZN6KGAPI25Drive22ChildReferenceFetchJob11qt_metacallEN11QMetaObject4CallEiPPv@Base 4.80.0
 _ZN6KGAPI25Drive22ChildReferenceFetchJob11qt_metacastEPKc@Base 4.80.0
 _ZN6KGAPI25Drive22ChildReferenceFetchJob16staticMetaObjectE@Base 4.80.0
 _ZN6KGAPI25Drive22ChildReferenceFetchJob20handleReplyWithItemsEPK13QNetworkReplyRK10QByteArray@Base 4.80.0
 _ZN6KGAPI25Drive22ChildReferenceFetchJob5startEv@Base 4.80.0
 _ZN6KGAPI25Drive22ChildReferenceFetchJobC1ERK7QStringRK14QSharedPointerINS_7AccountEEP7QObject@Base 4.80.0
 _ZN6KGAPI25Drive22ChildReferenceFetchJobC1ERK7QStringS4_RK14QSharedPointerINS_7AccountEEP7QObject@Base 4.80.0
 _ZN6KGAPI25Drive22ChildReferenceFetchJobC2ERK7QStringRK14QSharedPointerINS_7AccountEEP7QObject@Base 4.80.0
 _ZN6KGAPI25Drive22ChildReferenceFetchJobC2ERK7QStringS4_RK14QSharedPointerINS_7AccountEEP7QObject@Base 4.80.0
 _ZN6KGAPI25Drive22ChildReferenceFetchJobD0Ev@Base 4.80.0
 _ZN6KGAPI25Drive22ChildReferenceFetchJobD1Ev@Base 4.80.0
 _ZN6KGAPI25Drive22ChildReferenceFetchJobD2Ev@Base 4.80.0
 _ZN6KGAPI25Drive23ChildReferenceCreateJob11qt_metacallEN11QMetaObject4CallEiPPv@Base 4.80.0
 _ZN6KGAPI25Drive23ChildReferenceCreateJob11qt_metacastEPKc@Base 4.80.0
 _ZN6KGAPI25Drive23ChildReferenceCreateJob16staticMetaObjectE@Base 4.80.0
 _ZN6KGAPI25Drive23ChildReferenceCreateJob20handleReplyWithItemsEPK13QNetworkReplyRK10QByteArray@Base 4.80.0
 _ZN6KGAPI25Drive23ChildReferenceCreateJob5startEv@Base 4.80.0
 _ZN6KGAPI25Drive23ChildReferenceCreateJobC1ERK7QStringRK11QStringListRK14QSharedPointerINS_7AccountEEP7QObject@Base 4.80.0
 _ZN6KGAPI25Drive23ChildReferenceCreateJobC1ERK7QStringRK14QSharedPointerINS0_14ChildReferenceEERKS5_INS_7AccountEEP7QObject@Base 4.80.0
 _ZN6KGAPI25Drive23ChildReferenceCreateJobC1ERK7QStringRK5QListI14QSharedPointerINS0_14ChildReferenceEEERKS6_INS_7AccountEEP7QObject@Base 4.80.0
 _ZN6KGAPI25Drive23ChildReferenceCreateJobC1ERK7QStringS4_RK14QSharedPointerINS_7AccountEEP7QObject@Base 4.80.0
 _ZN6KGAPI25Drive23ChildReferenceCreateJobC2ERK7QStringRK11QStringListRK14QSharedPointerINS_7AccountEEP7QObject@Base 4.80.0
 _ZN6KGAPI25Drive23ChildReferenceCreateJobC2ERK7QStringRK14QSharedPointerINS0_14ChildReferenceEERKS5_INS_7AccountEEP7QObject@Base 4.80.0
 _ZN6KGAPI25Drive23ChildReferenceCreateJobC2ERK7QStringRK5QListI14QSharedPointerINS0_14ChildReferenceEEERKS6_INS_7AccountEEP7QObject@Base 4.80.0
 _ZN6KGAPI25Drive23ChildReferenceCreateJobC2ERK7QStringS4_RK14QSharedPointerINS_7AccountEEP7QObject@Base 4.80.0
 _ZN6KGAPI25Drive23ChildReferenceCreateJobD0Ev@Base 4.80.0
 _ZN6KGAPI25Drive23ChildReferenceCreateJobD1Ev@Base 4.80.0
 _ZN6KGAPI25Drive23ChildReferenceCreateJobD2Ev@Base 4.80.0
 _ZN6KGAPI25Drive23ChildReferenceDeleteJob11qt_metacallEN11QMetaObject4CallEiPPv@Base 4.80.0
 _ZN6KGAPI25Drive23ChildReferenceDeleteJob11qt_metacastEPKc@Base 4.80.0
 _ZN6KGAPI25Drive23ChildReferenceDeleteJob16staticMetaObjectE@Base 4.80.0
 _ZN6KGAPI25Drive23ChildReferenceDeleteJob5startEv@Base 4.80.0
 _ZN6KGAPI25Drive23ChildReferenceDeleteJobC1ERK7QStringRK11QStringListRK14QSharedPointerINS_7AccountEEP7QObject@Base 4.80.0
 _ZN6KGAPI25Drive23ChildReferenceDeleteJobC1ERK7QStringRK14QSharedPointerINS0_14ChildReferenceEERKS5_INS_7AccountEEP7QObject@Base 4.80.0
 _ZN6KGAPI25Drive23ChildReferenceDeleteJobC1ERK7QStringRK5QListI14QSharedPointerINS0_14ChildReferenceEEERKS6_INS_7AccountEEP7QObject@Base 4.80.0
 _ZN6KGAPI25Drive23ChildReferenceDeleteJobC1ERK7QStringS4_RK14QSharedPointerINS_7AccountEEP7QObject@Base 4.80.0
 _ZN6KGAPI25Drive23ChildReferenceDeleteJobC2ERK7QStringRK11QStringListRK14QSharedPointerINS_7AccountEEP7QObject@Base 4.80.0
 _ZN6KGAPI25Drive23ChildReferenceDeleteJobC2ERK7QStringRK14QSharedPointerINS0_14ChildReferenceEERKS5_INS_7AccountEEP7QObject@Base 4.80.0
 _ZN6KGAPI25Drive23ChildReferenceDeleteJobC2ERK7QStringRK5QListI14QSharedPointerINS0_14ChildReferenceEEERKS6_INS_7AccountEEP7QObject@Base 4.80.0
 _ZN6KGAPI25Drive23ChildReferenceDeleteJobC2ERK7QStringS4_RK14QSharedPointerINS_7AccountEEP7QObject@Base 4.80.0
 _ZN6KGAPI25Drive23ChildReferenceDeleteJobD0Ev@Base 4.80.0
 _ZN6KGAPI25Drive23ChildReferenceDeleteJobD1Ev@Base 4.80.0
 _ZN6KGAPI25Drive23ChildReferenceDeleteJobD2Ev@Base 4.80.0
 _ZN6KGAPI25Drive23ParentReferenceFetchJob11qt_metacallEN11QMetaObject4CallEiPPv@Base 4.80.0
 _ZN6KGAPI25Drive23ParentReferenceFetchJob11qt_metacastEPKc@Base 4.80.0
 _ZN6KGAPI25Drive23ParentReferenceFetchJob16staticMetaObjectE@Base 4.80.0
 _ZN6KGAPI25Drive23ParentReferenceFetchJob20handleReplyWithItemsEPK13QNetworkReplyRK10QByteArray@Base 4.80.0
 _ZN6KGAPI25Drive23ParentReferenceFetchJob5startEv@Base 4.80.0
 _ZN6KGAPI25Drive23ParentReferenceFetchJobC1ERK7QStringRK14QSharedPointerINS_7AccountEEP7QObject@Base 4.80.0
 _ZN6KGAPI25Drive23ParentReferenceFetchJobC1ERK7QStringS4_RK14QSharedPointerINS_7AccountEEP7QObject@Base 4.80.0
 _ZN6KGAPI25Drive23ParentReferenceFetchJobC2ERK7QStringRK14QSharedPointerINS_7AccountEEP7QObject@Base 4.80.0
 _ZN6KGAPI25Drive23ParentReferenceFetchJobC2ERK7QStringS4_RK14QSharedPointerINS_7AccountEEP7QObject@Base 4.80.0
 _ZN6KGAPI25Drive23ParentReferenceFetchJobD0Ev@Base 4.80.0
 _ZN6KGAPI25Drive23ParentReferenceFetchJobD1Ev@Base 4.80.0
 _ZN6KGAPI25Drive23ParentReferenceFetchJobD2Ev@Base 4.80.0
 _ZN6KGAPI25Drive24ParentReferenceCreateJob11qt_metacallEN11QMetaObject4CallEiPPv@Base 4.80.0
 _ZN6KGAPI25Drive24ParentReferenceCreateJob11qt_metacastEPKc@Base 4.80.0
 _ZN6KGAPI25Drive24ParentReferenceCreateJob16staticMetaObjectE@Base 4.80.0
 _ZN6KGAPI25Drive24ParentReferenceCreateJob20handleReplyWithItemsEPK13QNetworkReplyRK10QByteArray@Base 4.80.0
 _ZN6KGAPI25Drive24ParentReferenceCreateJob5startEv@Base 4.80.0
 _ZN6KGAPI25Drive24ParentReferenceCreateJobC1ERK7QStringRK11QStringListRK14QSharedPointerINS_7AccountEEP7QObject@Base 4.80.0
 _ZN6KGAPI25Drive24ParentReferenceCreateJobC1ERK7QStringRK14QSharedPointerINS0_15ParentReferenceEERKS5_INS_7AccountEEP7QObject@Base 4.80.0
 _ZN6KGAPI25Drive24ParentReferenceCreateJobC1ERK7QStringRK5QListI14QSharedPointerINS0_15ParentReferenceEEERKS6_INS_7AccountEEP7QObject@Base 4.80.0
 _ZN6KGAPI25Drive24ParentReferenceCreateJobC1ERK7QStringS4_RK14QSharedPointerINS_7AccountEEP7QObject@Base 4.80.0
 _ZN6KGAPI25Drive24ParentReferenceCreateJobC2ERK7QStringRK11QStringListRK14QSharedPointerINS_7AccountEEP7QObject@Base 4.80.0
 _ZN6KGAPI25Drive24ParentReferenceCreateJobC2ERK7QStringRK14QSharedPointerINS0_15ParentReferenceEERKS5_INS_7AccountEEP7QObject@Base 4.80.0
 _ZN6KGAPI25Drive24ParentReferenceCreateJobC2ERK7QStringRK5QListI14QSharedPointerINS0_15ParentReferenceEEERKS6_INS_7AccountEEP7QObject@Base 4.80.0
 _ZN6KGAPI25Drive24ParentReferenceCreateJobC2ERK7QStringS4_RK14QSharedPointerINS_7AccountEEP7QObject@Base 4.80.0
 _ZN6KGAPI25Drive24ParentReferenceCreateJobD0Ev@Base 4.80.0
 _ZN6KGAPI25Drive24ParentReferenceCreateJobD1Ev@Base 4.80.0
 _ZN6KGAPI25Drive24ParentReferenceCreateJobD2Ev@Base 4.80.0
 _ZN6KGAPI25Drive24ParentReferenceDeleteJob11qt_metacallEN11QMetaObject4CallEiPPv@Base 4.80.0
 _ZN6KGAPI25Drive24ParentReferenceDeleteJob11qt_metacastEPKc@Base 4.80.0
 _ZN6KGAPI25Drive24ParentReferenceDeleteJob16staticMetaObjectE@Base 4.80.0
 _ZN6KGAPI25Drive24ParentReferenceDeleteJob5startEv@Base 4.80.0
 _ZN6KGAPI25Drive24ParentReferenceDeleteJobC1ERK7QStringRK11QStringListRK14QSharedPointerINS_7AccountEEP7QObject@Base 4.80.0
 _ZN6KGAPI25Drive24ParentReferenceDeleteJobC1ERK7QStringRK14QSharedPointerINS0_15ParentReferenceEERKS5_INS_7AccountEEP7QObject@Base 4.80.0
 _ZN6KGAPI25Drive24ParentReferenceDeleteJobC1ERK7QStringRK5QListI14QSharedPointerINS0_15ParentReferenceEEERKS6_INS_7AccountEEP7QObject@Base 4.80.0
 _ZN6KGAPI25Drive24ParentReferenceDeleteJobC1ERK7QStringS4_RK14QSharedPointerINS_7AccountEEP7QObject@Base 4.80.0
 _ZN6KGAPI25Drive24ParentReferenceDeleteJobC2ERK7QStringRK11QStringListRK14QSharedPointerINS_7AccountEEP7QObject@Base 4.80.0
 _ZN6KGAPI25Drive24ParentReferenceDeleteJobC2ERK7QStringRK14QSharedPointerINS0_15ParentReferenceEERKS5_INS_7AccountEEP7QObject@Base 4.80.0
 _ZN6KGAPI25Drive24ParentReferenceDeleteJobC2ERK7QStringRK5QListI14QSharedPointerINS0_15ParentReferenceEEERKS6_INS_7AccountEEP7QObject@Base 4.80.0
 _ZN6KGAPI25Drive24ParentReferenceDeleteJobC2ERK7QStringS4_RK14QSharedPointerINS_7AccountEEP7QObject@Base 4.80.0
 _ZN6KGAPI25Drive24ParentReferenceDeleteJobD0Ev@Base 4.80.0
 _ZN6KGAPI25Drive24ParentReferenceDeleteJobD1Ev@Base 4.80.0
 _ZN6KGAPI25Drive24ParentReferenceDeleteJobD2Ev@Base 4.80.0
 _ZN6KGAPI25Drive3App12fromJSONFeedERK10QByteArray@Base 4.80.0
 _ZN6KGAPI25Drive3App4IconC1ERKS2_@Base 4.80.0
 _ZN6KGAPI25Drive3App4IconC1Ev@Base 4.80.0
 _ZN6KGAPI25Drive3App4IconC2ERKS2_@Base 4.80.0
 _ZN6KGAPI25Drive3App4IconC2Ev@Base 4.80.0
 _ZN6KGAPI25Drive3App4IconD0Ev@Base 4.80.0
 _ZN6KGAPI25Drive3App4IconD1Ev@Base 4.80.0
 _ZN6KGAPI25Drive3App4IconD2Ev@Base 4.80.0
 _ZN6KGAPI25Drive3App8fromJSONERK10QByteArray@Base 4.80.0
 _ZN6KGAPI25Drive3AppC1ERKS1_@Base 4.80.0
 _ZN6KGAPI25Drive3AppC1Ev@Base 4.80.0
 _ZN6KGAPI25Drive3AppC2ERKS1_@Base 4.80.0
 _ZN6KGAPI25Drive3AppC2Ev@Base 4.80.0
 _ZN6KGAPI25Drive3AppD0Ev@Base 4.80.0
 _ZN6KGAPI25Drive3AppD1Ev@Base 4.80.0
 _ZN6KGAPI25Drive3AppD2Ev@Base 4.80.0
 _ZN6KGAPI25Drive4File10setParentsERK5QListI14QSharedPointerINS0_15ParentReferenceEEE@Base 4.80.0
 _ZN6KGAPI25Drive4File11setMimeTypeERK7QString@Base 4.80.0
 _ZN6KGAPI25Drive4File12fromJSONFeedERK10QByteArrayRNS_8FeedDataE@Base 4.80.0
 _ZN6KGAPI25Drive4File13IndexableText7setTextERK7QString@Base 4.80.0
 _ZN6KGAPI25Drive4File13IndexableTextC1ERKS2_@Base 4.80.0
 _ZN6KGAPI25Drive4File13IndexableTextC1Ev@Base 4.80.0
 _ZN6KGAPI25Drive4File13IndexableTextC2ERKS2_@Base 4.80.0
 _ZN6KGAPI25Drive4File13IndexableTextC2Ev@Base 4.80.0
 _ZN6KGAPI25Drive4File13IndexableTextD0Ev@Base 4.80.0
 _ZN6KGAPI25Drive4File13IndexableTextD1Ev@Base 4.80.0
 _ZN6KGAPI25Drive4File13IndexableTextD2Ev@Base 4.80.0
 _ZN6KGAPI25Drive4File13indexableTextEv@Base 4.80.0
 _ZN6KGAPI25Drive4File14folderMimeTypeEv@Base 4.80.0
 _ZN6KGAPI25Drive4File14setDescriptionERK7QString@Base 4.80.0
 _ZN6KGAPI25Drive4File15setModifiedDateERK9QDateTime@Base 4.80.0
 _ZN6KGAPI25Drive4File18ImageMediaMetadata8LocationC1ERKS3_@Base 4.80.0
 _ZN6KGAPI25Drive4File18ImageMediaMetadata8LocationC1Ev@Base 4.80.0
 _ZN6KGAPI25Drive4File18ImageMediaMetadata8LocationC2ERKS3_@Base 4.80.0
 _ZN6KGAPI25Drive4File18ImageMediaMetadata8LocationC2Ev@Base 4.80.0
 _ZN6KGAPI25Drive4File18ImageMediaMetadata8LocationD0Ev@Base 4.80.0
 _ZN6KGAPI25Drive4File18ImageMediaMetadata8LocationD1Ev@Base 4.80.0
 _ZN6KGAPI25Drive4File18ImageMediaMetadata8LocationD2Ev@Base 4.80.0
 _ZN6KGAPI25Drive4File18ImageMediaMetadataC1ERK4QMapI7QString8QVariantE@Base 4.80.0
 _ZN6KGAPI25Drive4File18ImageMediaMetadataC1ERKS2_@Base 4.80.0
 _ZN6KGAPI25Drive4File18ImageMediaMetadataC2ERK4QMapI7QString8QVariantE@Base 4.80.0
 _ZN6KGAPI25Drive4File18ImageMediaMetadataC2ERKS2_@Base 4.80.0
 _ZN6KGAPI25Drive4File18ImageMediaMetadataD0Ev@Base 4.80.0
 _ZN6KGAPI25Drive4File18ImageMediaMetadataD1Ev@Base 4.80.0
 _ZN6KGAPI25Drive4File18ImageMediaMetadataD2Ev@Base 4.80.0
 _ZN6KGAPI25Drive4File21setLastViewedByMeDateERK9QDateTime@Base 4.80.0
 _ZN6KGAPI25Drive4File6Labels10setStarredEb@Base 4.80.0
 _ZN6KGAPI25Drive4File6Labels10setTrashedEb@Base 4.80.0
 _ZN6KGAPI25Drive4File6Labels13setRestrictedEb@Base 4.80.0
 _ZN6KGAPI25Drive4File6Labels9setHiddenEb@Base 4.80.0
 _ZN6KGAPI25Drive4File6Labels9setViewedEb@Base 4.80.0
 _ZN6KGAPI25Drive4File6LabelsC1ERKS2_@Base 4.80.0
 _ZN6KGAPI25Drive4File6LabelsC1Ev@Base 4.80.0
 _ZN6KGAPI25Drive4File6LabelsC2ERKS2_@Base 4.80.0
 _ZN6KGAPI25Drive4File6LabelsC2Ev@Base 4.80.0
 _ZN6KGAPI25Drive4File6LabelsD0Ev@Base 4.80.0
 _ZN6KGAPI25Drive4File6LabelsD1Ev@Base 4.80.0
 _ZN6KGAPI25Drive4File6LabelsD2Ev@Base 4.80.0
 _ZN6KGAPI25Drive4File6toJSONERK14QSharedPointerIS1_E@Base 4.80.0
 _ZN6KGAPI25Drive4File8fromJSONERK10QByteArray@Base 4.80.0
 _ZN6KGAPI25Drive4File8fromJSONERK4QMapI7QString8QVariantE@Base 4.80.0
 _ZN6KGAPI25Drive4File8setTitleERK7QString@Base 4.80.0
 _ZN6KGAPI25Drive4File9ThumbnailC1ERK4QMapI7QString8QVariantE@Base 4.80.0
 _ZN6KGAPI25Drive4File9ThumbnailC1ERKS2_@Base 4.80.0
 _ZN6KGAPI25Drive4File9ThumbnailC2ERK4QMapI7QString8QVariantE@Base 4.80.0
 _ZN6KGAPI25Drive4File9ThumbnailC2ERKS2_@Base 4.80.0
 _ZN6KGAPI25Drive4File9ThumbnailD0Ev@Base 4.80.0
 _ZN6KGAPI25Drive4File9ThumbnailD1Ev@Base 4.80.0
 _ZN6KGAPI25Drive4File9ThumbnailD2Ev@Base 4.80.0
 _ZN6KGAPI25Drive4File9setLabelsERK14QSharedPointerINS1_6LabelsEE@Base 4.80.0
 _ZN6KGAPI25Drive4FileC1ERKS1_@Base 4.80.0
 _ZN6KGAPI25Drive4FileC1Ev@Base 4.80.0
 _ZN6KGAPI25Drive4FileC2ERKS1_@Base 4.80.0
 _ZN6KGAPI25Drive4FileC2Ev@Base 4.80.0
 _ZN6KGAPI25Drive4FileD0Ev@Base 4.80.0
 _ZN6KGAPI25Drive4FileD1Ev@Base 4.80.0
 _ZN6KGAPI25Drive4FileD2Ev@Base 4.80.0
 _ZN6KGAPI25Drive4User8fromJSONERK4QMapI7QString8QVariantE@Base 4.80.0
 _ZN6KGAPI25Drive4UserC1ERKS1_@Base 4.80.0
 _ZN6KGAPI25Drive4UserC1Ev@Base 4.80.0
 _ZN6KGAPI25Drive4UserC2ERKS1_@Base 4.80.0
 _ZN6KGAPI25Drive4UserC2Ev@Base 4.80.0
 _ZN6KGAPI25Drive4UserD0Ev@Base 4.80.0
 _ZN6KGAPI25Drive4UserD1Ev@Base 4.80.0
 _ZN6KGAPI25Drive4UserD2Ev@Base 4.80.0
 _ZN6KGAPI25Drive5About13MaxUploadSizeC1ERKS2_@Base 4.80.0
 _ZN6KGAPI25Drive5About13MaxUploadSizeC1Ev@Base 4.80.0
 _ZN6KGAPI25Drive5About13MaxUploadSizeC2ERKS2_@Base 4.80.0
 _ZN6KGAPI25Drive5About13MaxUploadSizeC2Ev@Base 4.80.0
 _ZN6KGAPI25Drive5About13MaxUploadSizeD0Ev@Base 4.80.0
 _ZN6KGAPI25Drive5About13MaxUploadSizeD1Ev@Base 4.80.0
 _ZN6KGAPI25Drive5About13MaxUploadSizeD2Ev@Base 4.80.0
 _ZN6KGAPI25Drive5About18AdditionalRoleInfo7RoleSetC1ERKS3_@Base 4.80.0
 _ZN6KGAPI25Drive5About18AdditionalRoleInfo7RoleSetC1Ev@Base 4.80.0
 _ZN6KGAPI25Drive5About18AdditionalRoleInfo7RoleSetC2ERKS3_@Base 4.80.0
 _ZN6KGAPI25Drive5About18AdditionalRoleInfo7RoleSetC2Ev@Base 4.80.0
 _ZN6KGAPI25Drive5About18AdditionalRoleInfo7RoleSetD0Ev@Base 4.80.0
 _ZN6KGAPI25Drive5About18AdditionalRoleInfo7RoleSetD1Ev@Base 4.80.0
 _ZN6KGAPI25Drive5About18AdditionalRoleInfo7RoleSetD2Ev@Base 4.80.0
 _ZN6KGAPI25Drive5About18AdditionalRoleInfoC1ERKS2_@Base 4.80.0
 _ZN6KGAPI25Drive5About18AdditionalRoleInfoC1Ev@Base 4.80.0
 _ZN6KGAPI25Drive5About18AdditionalRoleInfoC2ERKS2_@Base 4.80.0
 _ZN6KGAPI25Drive5About18AdditionalRoleInfoC2Ev@Base 4.80.0
 _ZN6KGAPI25Drive5About18AdditionalRoleInfoD0Ev@Base 4.80.0
 _ZN6KGAPI25Drive5About18AdditionalRoleInfoD1Ev@Base 4.80.0
 _ZN6KGAPI25Drive5About18AdditionalRoleInfoD2Ev@Base 4.80.0
 _ZN6KGAPI25Drive5About6FormatC1ERKS2_@Base 4.80.0
 _ZN6KGAPI25Drive5About6FormatC1Ev@Base 4.80.0
 _ZN6KGAPI25Drive5About6FormatC2ERKS2_@Base 4.80.0
 _ZN6KGAPI25Drive5About6FormatC2Ev@Base 4.80.0
 _ZN6KGAPI25Drive5About6FormatD0Ev@Base 4.80.0
 _ZN6KGAPI25Drive5About6FormatD1Ev@Base 4.80.0
 _ZN6KGAPI25Drive5About6FormatD2Ev@Base 4.80.0
 _ZN6KGAPI25Drive5About7FeatureC1ERKS2_@Base 4.80.0
 _ZN6KGAPI25Drive5About7FeatureC1Ev@Base 4.80.0
 _ZN6KGAPI25Drive5About7FeatureC2ERKS2_@Base 4.80.0
 _ZN6KGAPI25Drive5About7FeatureC2Ev@Base 4.80.0
 _ZN6KGAPI25Drive5About7FeatureD0Ev@Base 4.80.0
 _ZN6KGAPI25Drive5About7FeatureD1Ev@Base 4.80.0
 _ZN6KGAPI25Drive5About7FeatureD2Ev@Base 4.80.0
 _ZN6KGAPI25Drive5About8fromJSONERK10QByteArray@Base 4.80.0
 _ZN6KGAPI25Drive5AboutC1ERKS1_@Base 4.80.0
 _ZN6KGAPI25Drive5AboutC1Ev@Base 4.80.0
 _ZN6KGAPI25Drive5AboutC2ERKS1_@Base 4.80.0
 _ZN6KGAPI25Drive5AboutC2Ev@Base 4.80.0
 _ZN6KGAPI25Drive5AboutD0Ev@Base 4.80.0
 _ZN6KGAPI25Drive5AboutD1Ev@Base 4.80.0
 _ZN6KGAPI25Drive5AboutD2Ev@Base 4.80.0
 _ZN6KGAPI25Drive6Change12fromJSONFeedERK10QByteArrayRNS_8FeedDataE@Base 4.80.0
 _ZN6KGAPI25Drive6Change8fromJSONERK10QByteArray@Base 4.80.0
 _ZN6KGAPI25Drive6ChangeC1ERKS1_@Base 4.80.0
 _ZN6KGAPI25Drive6ChangeC1Ev@Base 4.80.0
 _ZN6KGAPI25Drive6ChangeC2ERKS1_@Base 4.80.0
 _ZN6KGAPI25Drive6ChangeC2Ev@Base 4.80.0
 _ZN6KGAPI25Drive6ChangeD0Ev@Base 4.80.0
 _ZN6KGAPI25Drive6ChangeD1Ev@Base 4.80.0
 _ZN6KGAPI25Drive6ChangeD2Ev@Base 4.80.0
 _ZN6KGAPI25Drive8Revision12fromJSONFeedERK10QByteArray@Base 4.80.0
 _ZN6KGAPI25Drive8Revision12setPublishedEb@Base 4.80.0
 _ZN6KGAPI25Drive8Revision14setPublishAutoEb@Base 4.80.0
 _ZN6KGAPI25Drive8Revision25setPublishedOutsideDomainEb@Base 4.80.0
 _ZN6KGAPI25Drive8Revision6toJSONERK14QSharedPointerIS1_E@Base 4.80.0
 _ZN6KGAPI25Drive8Revision8fromJSONERK10QByteArray@Base 4.80.0
 _ZN6KGAPI25Drive8Revision9setPinnedEb@Base 4.80.0
 _ZN6KGAPI25Drive8RevisionC1ERKS1_@Base 4.80.0
 _ZN6KGAPI25Drive8RevisionC1Ev@Base 4.80.0
 _ZN6KGAPI25Drive8RevisionC2ERKS1_@Base 4.80.0
 _ZN6KGAPI25Drive8RevisionC2Ev@Base 4.80.0
 _ZN6KGAPI25Drive8RevisionD0Ev@Base 4.80.0
 _ZN6KGAPI25Drive8RevisionD1Ev@Base 4.80.0
 _ZN6KGAPI25Drive8RevisionD2Ev@Base 4.80.0
 _ZNK6KGAPI25Drive10Permission15additionalRolesEv@Base 4.80.0
 _ZNK6KGAPI25Drive10Permission2idEv@Base 4.80.0
 _ZNK6KGAPI25Drive10Permission4nameEv@Base 4.80.0
 _ZNK6KGAPI25Drive10Permission4roleEv@Base 4.80.0
 _ZNK6KGAPI25Drive10Permission4typeEv@Base 4.80.0
 _ZNK6KGAPI25Drive10Permission5valueEv@Base 4.80.0
 _ZNK6KGAPI25Drive10Permission7authKeyEv@Base 4.80.0
 _ZNK6KGAPI25Drive10Permission8selfLinkEv@Base 4.80.0
 _ZNK6KGAPI25Drive10Permission8withLinkEv@Base 4.80.0
 _ZNK6KGAPI25Drive10Permission9photoLinkEv@Base 4.80.0
 _ZNK6KGAPI25Drive11FileCopyJob10metaObjectEv@Base 4.80.0
 _ZNK6KGAPI25Drive11FileCopyJob5filesEv@Base 4.80.0
 _ZNK6KGAPI25Drive12FileFetchJob10metaObjectEv@Base 4.80.0
 _ZNK6KGAPI25Drive12FileFetchJob16updateViewedDateEv@Base 4.80.0
 _ZNK6KGAPI25Drive12FileFetchJob6fieldsEv@Base 4.80.0
 _ZNK6KGAPI25Drive12FileTouchJob10metaObjectEv@Base 4.80.0
 _ZNK6KGAPI25Drive12FileTrashJob10metaObjectEv@Base 4.80.0
 _ZNK6KGAPI25Drive13AboutFetchJob10metaObjectEv@Base 4.80.0
 _ZNK6KGAPI25Drive13AboutFetchJob13startChangeIdEv@Base 4.80.0
 _ZNK6KGAPI25Drive13AboutFetchJob16maxChangeIdCountEv@Base 4.80.0
 _ZNK6KGAPI25Drive13AboutFetchJob17includeSubscribedEv@Base 4.80.0
 _ZNK6KGAPI25Drive13AboutFetchJob9aboutDataEv@Base 4.80.0
 _ZNK6KGAPI25Drive13FileCreateJob10metaObjectEv@Base 4.80.0
 _ZNK6KGAPI25Drive13FileDeleteJob10metaObjectEv@Base 4.80.0
 _ZNK6KGAPI25Drive13FileModifyJob10metaObjectEv@Base 4.80.0
 _ZNK6KGAPI25Drive13FileModifyJob16updateViewedDateEv@Base 4.80.0
 _ZNK6KGAPI25Drive13FileModifyJob17createNewRevisionEv@Base 4.80.0
 _ZNK6KGAPI25Drive13FileModifyJob18updateModifiedDateEv@Base 4.80.0
 _ZNK6KGAPI25Drive14ChangeFetchJob10maxResultsEv@Base 4.80.0
 _ZNK6KGAPI25Drive14ChangeFetchJob10metaObjectEv@Base 4.80.0
 _ZNK6KGAPI25Drive14ChangeFetchJob13startChangeIdEv@Base 4.80.0
 _ZNK6KGAPI25Drive14ChangeFetchJob14includeDeletedEv@Base 4.80.0
 _ZNK6KGAPI25Drive14ChangeFetchJob17includeSubscribedEv@Base 4.80.0
 _ZNK6KGAPI25Drive14ChildReference2idEv@Base 4.80.0
 _ZNK6KGAPI25Drive14ChildReference8selfLinkEv@Base 4.80.0
 _ZNK6KGAPI25Drive14ChildReference9childLinkEv@Base 4.80.0
 _ZNK6KGAPI25Drive14FileUntrashJob10metaObjectEv@Base 4.80.0
 _ZNK6KGAPI25Drive15FileSearchQuery7isEmptyEv@Base 4.80.0
 _ZNK6KGAPI25Drive15FileSearchQuery9serializeEv@Base 4.80.0
 _ZNK6KGAPI25Drive15ParentReference10parentLinkEv@Base 4.80.0
 _ZNK6KGAPI25Drive15ParentReference2idEv@Base 4.80.0
 _ZNK6KGAPI25Drive15ParentReference6isRootEv@Base 4.80.0
 _ZNK6KGAPI25Drive15ParentReference8selfLinkEv@Base 4.80.0
 _ZNK6KGAPI25Drive16RevisionFetchJob10metaObjectEv@Base 4.80.0
 _ZNK6KGAPI25Drive17RevisionDeleteJob10metaObjectEv@Base 4.80.0
 _ZNK6KGAPI25Drive17RevisionModifyJob10metaObjectEv@Base 4.80.0
 _ZNK6KGAPI25Drive18PermissionFetchJob10metaObjectEv@Base 4.80.0
 _ZNK6KGAPI25Drive19FileAbstractDataJob10metaObjectEv@Base 4.80.0
 _ZNK6KGAPI25Drive19FileAbstractDataJob11ocrLanguageEv@Base 4.80.0
 _ZNK6KGAPI25Drive19FileAbstractDataJob17timedTextLanguageEv@Base 4.80.0
 _ZNK6KGAPI25Drive19FileAbstractDataJob18timedTextTrackNameEv@Base 4.80.0
 _ZNK6KGAPI25Drive19FileAbstractDataJob3ocrEv@Base 4.80.0
 _ZNK6KGAPI25Drive19FileAbstractDataJob6pinnedEv@Base 4.80.0
 _ZNK6KGAPI25Drive19FileAbstractDataJob7convertEv@Base 4.80.0
 _ZNK6KGAPI25Drive19FileFetchContentJob10metaObjectEv@Base 4.80.0
 _ZNK6KGAPI25Drive19FileFetchContentJob4dataEv@Base 4.80.0
 _ZNK6KGAPI25Drive19PermissionCreateJob10metaObjectEv@Base 4.80.0
 _ZNK6KGAPI25Drive19PermissionDeleteJob10metaObjectEv@Base 4.80.0
 _ZNK6KGAPI25Drive19PermissionModifyJob10metaObjectEv@Base 4.80.0
 _ZNK6KGAPI25Drive21FileAbstractModifyJob10metaObjectEv@Base 4.80.0
 _ZNK6KGAPI25Drive21FileAbstractUploadJob10metaObjectEv@Base 4.80.0
 _ZNK6KGAPI25Drive21FileAbstractUploadJob25useContentAsIndexableTextEv@Base 4.80.0
 _ZNK6KGAPI25Drive22ChildReferenceFetchJob10metaObjectEv@Base 4.80.0
 _ZNK6KGAPI25Drive23ChildReferenceCreateJob10metaObjectEv@Base 4.80.0
 _ZNK6KGAPI25Drive23ChildReferenceDeleteJob10metaObjectEv@Base 4.80.0
 _ZNK6KGAPI25Drive23ParentReferenceFetchJob10metaObjectEv@Base 4.80.0
 _ZNK6KGAPI25Drive24ParentReferenceCreateJob10metaObjectEv@Base 4.80.0
 _ZNK6KGAPI25Drive24ParentReferenceDeleteJob10metaObjectEv@Base 4.80.0
 _ZNK6KGAPI25Drive3App10authorizedEv@Base 4.80.0
 _ZNK6KGAPI25Drive3App10objectTypeEv@Base 4.80.0
 _ZNK6KGAPI25Drive3App10productUrlEv@Base 4.80.0
 _ZNK6KGAPI25Drive3App12useByDefaultEv@Base 4.80.0
 _ZNK6KGAPI25Drive3App14supportsCreateEv@Base 4.80.0
 _ZNK6KGAPI25Drive3App14supportsImportEv@Base 4.80.0
 _ZNK6KGAPI25Drive3App16primaryMimeTypesEv@Base 4.80.0
 _ZNK6KGAPI25Drive3App18secondaryMimeTypesEv@Base 4.80.0
 _ZNK6KGAPI25Drive3App21primaryFileExtensionsEv@Base 4.80.0
 _ZNK6KGAPI25Drive3App23secondaryFileExtensionsEv@Base 4.80.0
 _ZNK6KGAPI25Drive3App2idEv@Base 4.80.0
 _ZNK6KGAPI25Drive3App4Icon4sizeEv@Base 4.80.0
 _ZNK6KGAPI25Drive3App4Icon7iconUrlEv@Base 4.80.0
 _ZNK6KGAPI25Drive3App4Icon8categoryEv@Base 4.80.0
 _ZNK6KGAPI25Drive3App4nameEv@Base 4.80.0
 _ZNK6KGAPI25Drive3App5iconsEv@Base 4.80.0
 _ZNK6KGAPI25Drive3App9installedEv@Base 4.80.0
 _ZNK6KGAPI25Drive4File10ownerNamesEv@Base 4.80.0
 _ZNK6KGAPI25Drive4File11createdDateEv@Base 4.80.0
 _ZNK6KGAPI25Drive4File11descriptionEv@Base 4.80.0
 _ZNK6KGAPI25Drive4File11downloadUrlEv@Base 4.80.0
 _ZNK6KGAPI25Drive4File11exportLinksEv@Base 4.80.0
 _ZNK6KGAPI25Drive4File11md5ChecksumEv@Base 4.80.0
 _ZNK6KGAPI25Drive4File11webViewLinkEv@Base 4.80.0
 _ZNK6KGAPI25Drive4File12modifiedDateEv@Base 4.80.0
 _ZNK6KGAPI25Drive4File13IndexableText4textEv@Base 4.80.0
 _ZNK6KGAPI25Drive4File13alternateLinkEv@Base 4.80.0
 _ZNK6KGAPI25Drive4File13fileExtensionEv@Base 4.80.0
 _ZNK6KGAPI25Drive4File13thumbnailLinkEv@Base 4.80.0
 _ZNK6KGAPI25Drive4File14quotaBytesUsedEv@Base 4.80.0
 _ZNK6KGAPI25Drive4File14userPermissionEv@Base 4.80.0
 _ZNK6KGAPI25Drive4File14webContentLinkEv@Base 4.80.0
 _ZNK6KGAPI25Drive4File15writersCanShareEv@Base 4.80.0
 _ZNK6KGAPI25Drive4File16modifiedByMeDateEv@Base 4.80.0
 _ZNK6KGAPI25Drive4File16originalFileNameEv@Base 4.80.0
 _ZNK6KGAPI25Drive4File16sharedWithMeDateEv@Base 4.80.0
 _ZNK6KGAPI25Drive4File17explicitlyTrashedEv@Base 4.80.0
 _ZNK6KGAPI25Drive4File17lastModifyingUserEv@Base 4.80.0
 _ZNK6KGAPI25Drive4File18ImageMediaMetadata10cameraMakeEv@Base 4.80.0
 _ZNK6KGAPI25Drive4File18ImageMediaMetadata10colorSpaceEv@Base 4.80.0
 _ZNK6KGAPI25Drive4File18ImageMediaMetadata11cameraModelEv@Base 4.80.0
 _ZNK6KGAPI25Drive4File18ImageMediaMetadata11focalLengthEv@Base 4.80.0
 _ZNK6KGAPI25Drive4File18ImageMediaMetadata12exposureBiasEv@Base 4.80.0
 _ZNK6KGAPI25Drive4File18ImageMediaMetadata12exposureModeEv@Base 4.80.0
 _ZNK6KGAPI25Drive4File18ImageMediaMetadata12exposureTimeEv@Base 4.80.0
 _ZNK6KGAPI25Drive4File18ImageMediaMetadata12meteringModeEv@Base 4.80.0
 _ZNK6KGAPI25Drive4File18ImageMediaMetadata12whiteBalanceEv@Base 4.80.0
 _ZNK6KGAPI25Drive4File18ImageMediaMetadata15subjectDistanceEv@Base 4.80.0
 _ZNK6KGAPI25Drive4File18ImageMediaMetadata16maxApertureValueEv@Base 4.80.0
 _ZNK6KGAPI25Drive4File18ImageMediaMetadata4dateEv@Base 4.80.0
 _ZNK6KGAPI25Drive4File18ImageMediaMetadata4lensEv@Base 4.80.0
 _ZNK6KGAPI25Drive4File18ImageMediaMetadata5widthEv@Base 4.80.0
 _ZNK6KGAPI25Drive4File18ImageMediaMetadata6heightEv@Base 4.80.0
 _ZNK6KGAPI25Drive4File18ImageMediaMetadata6sensorEv@Base 4.80.0
 _ZNK6KGAPI25Drive4File18ImageMediaMetadata8Location8altitudeEv@Base 4.80.0
 _ZNK6KGAPI25Drive4File18ImageMediaMetadata8Location8latitudeEv@Base 4.80.0
 _ZNK6KGAPI25Drive4File18ImageMediaMetadata8Location9longitudeEv@Base 4.80.0
 _ZNK6KGAPI25Drive4File18ImageMediaMetadata8apertureEv@Base 4.80.0
 _ZNK6KGAPI25Drive4File18ImageMediaMetadata8isoSpeedEv@Base 4.80.0
 _ZNK6KGAPI25Drive4File18ImageMediaMetadata8locationEv@Base 4.80.0
 _ZNK6KGAPI25Drive4File18ImageMediaMetadata8rotationEv@Base 4.80.0
 _ZNK6KGAPI25Drive4File18ImageMediaMetadata9flashUsedEv@Base 4.80.0
 _ZNK6KGAPI25Drive4File18imageMediaMetadataEv@Base 4.80.0
 _ZNK6KGAPI25Drive4File18lastViewedByMeDateEv@Base 4.80.0
 _ZNK6KGAPI25Drive4File21lastModifyingUserNameEv@Base 4.80.0
 _ZNK6KGAPI25Drive4File2idEv@Base 4.80.0
 _ZNK6KGAPI25Drive4File5titleEv@Base 4.80.0
 _ZNK6KGAPI25Drive4File6Labels10restrictedEv@Base 4.80.0
 _ZNK6KGAPI25Drive4File6Labels6hiddenEv@Base 4.80.0
 _ZNK6KGAPI25Drive4File6Labels6viewedEv@Base 4.80.0
 _ZNK6KGAPI25Drive4File6Labels7starredEv@Base 4.80.0
 _ZNK6KGAPI25Drive4File6Labels7trashedEv@Base 4.80.0
 _ZNK6KGAPI25Drive4File6labelsEv@Base 4.80.0
 _ZNK6KGAPI25Drive4File6ownersEv@Base 4.80.0
 _ZNK6KGAPI25Drive4File6sharedEv@Base 4.80.0
 _ZNK6KGAPI25Drive4File7parentsEv@Base 4.80.0
 _ZNK6KGAPI25Drive4File8editableEv@Base 4.80.0
 _ZNK6KGAPI25Drive4File8fileSizeEv@Base 4.80.0
 _ZNK6KGAPI25Drive4File8iconLinkEv@Base 4.80.0
 _ZNK6KGAPI25Drive4File8isFolderEv@Base 4.80.0
 _ZNK6KGAPI25Drive4File8mimeTypeEv@Base 4.80.0
 _ZNK6KGAPI25Drive4File8selfLinkEv@Base 4.80.0
 _ZNK6KGAPI25Drive4File9Thumbnail5imageEv@Base 4.80.0
 _ZNK6KGAPI25Drive4File9Thumbnail8mimeTypeEv@Base 4.80.0
 _ZNK6KGAPI25Drive4File9embedLinkEv@Base 4.80.0
 _ZNK6KGAPI25Drive4File9thumbnailEv@Base 4.80.0
 _ZNK6KGAPI25Drive4User10pictureUrlEv@Base 4.80.0
 _ZNK6KGAPI25Drive4User11displayNameEv@Base 4.80.0
 _ZNK6KGAPI25Drive4User12permissionIdEv@Base 4.80.0
 _ZNK6KGAPI25Drive4User19isAuthenticatedUserEv@Base 4.80.0
 _ZNK6KGAPI25Drive5About12permissionIdEv@Base 4.80.0
 _ZNK6KGAPI25Drive5About12rootFolderIdEv@Base 4.80.0
 _ZNK6KGAPI25Drive5About13MaxUploadSize4sizeEv@Base 4.80.0
 _ZNK6KGAPI25Drive5About13MaxUploadSize4typeEv@Base 4.80.0
 _ZNK6KGAPI25Drive5About13exportFormatsEv@Base 4.80.0
 _ZNK6KGAPI25Drive5About13importFormatsEv@Base 4.80.0
 _ZNK6KGAPI25Drive5About14maxUploadSizesEv@Base 4.80.0
 _ZNK6KGAPI25Drive5About14quotaBytesUsedEv@Base 4.80.0
 _ZNK6KGAPI25Drive5About15largestChangeIdEv@Base 4.80.0
 _ZNK6KGAPI25Drive5About15quotaBytesTotalEv@Base 4.80.0
 _ZNK6KGAPI25Drive5About18AdditionalRoleInfo4typeEv@Base 4.80.0
 _ZNK6KGAPI25Drive5About18AdditionalRoleInfo7RoleSet11primaryRoleEv@Base 4.80.0
 _ZNK6KGAPI25Drive5About18AdditionalRoleInfo7RoleSet15additionalRolesEv@Base 4.80.0
 _ZNK6KGAPI25Drive5About18AdditionalRoleInfo8roleSetsEv@Base 4.80.0
 _ZNK6KGAPI25Drive5About18additionalRoleInfoEv@Base 4.80.0
 _ZNK6KGAPI25Drive5About18remainingChangeIdsEv@Base 4.80.0
 _ZNK6KGAPI25Drive5About19domainSharingPolicyEv@Base 4.80.0
 _ZNK6KGAPI25Drive5About21isCurrentAppInstalledEv@Base 4.80.0
 _ZNK6KGAPI25Drive5About21quotaBytesUsedInTrashEv@Base 4.80.0
 _ZNK6KGAPI25Drive5About23quotaBytesUserAggregateEv@Base 4.80.0
 _ZNK6KGAPI25Drive5About4nameEv@Base 4.80.0
 _ZNK6KGAPI25Drive5About4userEv@Base 4.80.0
 _ZNK6KGAPI25Drive5About6Format6sourceEv@Base 4.80.0
 _ZNK6KGAPI25Drive5About6Format7targetsEv@Base 4.80.0
 _ZNK6KGAPI25Drive5About7Feature11featureNameEv@Base 4.80.0
 _ZNK6KGAPI25Drive5About7Feature11featureRateEv@Base 4.80.0
 _ZNK6KGAPI25Drive5About8featuresEv@Base 4.80.0
 _ZNK6KGAPI25Drive5About8selfLinkEv@Base 4.80.0
 _ZNK6KGAPI25Drive6Change2idEv@Base 4.80.0
 _ZNK6KGAPI25Drive6Change4fileEv@Base 4.80.0
 _ZNK6KGAPI25Drive6Change6fileIdEv@Base 4.80.0
 _ZNK6KGAPI25Drive6Change7deletedEv@Base 4.80.0
 _ZNK6KGAPI25Drive6Change8selfLinkEv@Base 4.80.0
 _ZNK6KGAPI25Drive8Revision11downloadUrlEv@Base 4.80.0
 _ZNK6KGAPI25Drive8Revision11exportLinksEv@Base 4.80.0
 _ZNK6KGAPI25Drive8Revision11md5ChecksumEv@Base 4.80.0
 _ZNK6KGAPI25Drive8Revision11publishAutoEv@Base 4.80.0
 _ZNK6KGAPI25Drive8Revision12modifiedDateEv@Base 4.80.0
 _ZNK6KGAPI25Drive8Revision13publishedLinkEv@Base 4.80.0
 _ZNK6KGAPI25Drive8Revision16originalFilenameEv@Base 4.80.0
 _ZNK6KGAPI25Drive8Revision17lastModifyingUserEv@Base 4.80.0
 _ZNK6KGAPI25Drive8Revision21lastModifyingUserNameEv@Base 4.80.0
 _ZNK6KGAPI25Drive8Revision22publishedOutsideDomainEv@Base 4.80.0
 _ZNK6KGAPI25Drive8Revision2idEv@Base 4.80.0
 _ZNK6KGAPI25Drive8Revision6pinnedEv@Base 4.80.0
 _ZNK6KGAPI25Drive8Revision8fileSizeEv@Base 4.80.0
 _ZNK6KGAPI25Drive8Revision8mimeTypeEv@Base 4.80.0
 _ZNK6KGAPI25Drive8Revision8selfLinkEv@Base 4.80.0
 _ZNK6KGAPI25Drive8Revision9publishedEv@Base 4.80.0
 _ZTIN6KGAPI25Drive10PermissionE@Base 4.80.0
 _ZTIN6KGAPI25Drive11AppFetchJobE@Base 4.80.0
 _ZTIN6KGAPI25Drive11FileCopyJobE@Base 4.80.0
 _ZTIN6KGAPI25Drive12FileFetchJobE@Base 4.80.0
 _ZTIN6KGAPI25Drive12FileTouchJobE@Base 4.80.0
 _ZTIN6KGAPI25Drive12FileTrashJobE@Base 4.80.0
 _ZTIN6KGAPI25Drive13AboutFetchJobE@Base 4.80.0
 _ZTIN6KGAPI25Drive13FileCreateJobE@Base 4.80.0
 _ZTIN6KGAPI25Drive13FileDeleteJobE@Base 4.80.0
 _ZTIN6KGAPI25Drive13FileModifyJobE@Base 4.80.0
 _ZTIN6KGAPI25Drive14ChangeFetchJobE@Base 4.80.0
 _ZTIN6KGAPI25Drive14ChildReferenceE@Base 4.80.0
 _ZTIN6KGAPI25Drive14FileUntrashJobE@Base 4.80.0
 _ZTIN6KGAPI25Drive15ParentReferenceE@Base 4.80.0
 _ZTIN6KGAPI25Drive16RevisionFetchJobE@Base 4.80.0
 _ZTIN6KGAPI25Drive17RevisionDeleteJobE@Base 4.80.0
 _ZTIN6KGAPI25Drive17RevisionModifyJobE@Base 4.80.0
 _ZTIN6KGAPI25Drive18PermissionFetchJobE@Base 4.80.0
 _ZTIN6KGAPI25Drive19FileAbstractDataJobE@Base 4.80.0
 _ZTIN6KGAPI25Drive19FileFetchContentJobE@Base 4.80.0
 _ZTIN6KGAPI25Drive19PermissionCreateJobE@Base 4.80.0
 _ZTIN6KGAPI25Drive19PermissionDeleteJobE@Base 4.80.0
 _ZTIN6KGAPI25Drive19PermissionModifyJobE@Base 4.80.0
 _ZTIN6KGAPI25Drive21FileAbstractModifyJobE@Base 4.80.0
 _ZTIN6KGAPI25Drive21FileAbstractUploadJobE@Base 4.80.0
 _ZTIN6KGAPI25Drive22ChildReferenceFetchJobE@Base 4.80.0
 _ZTIN6KGAPI25Drive23ChildReferenceCreateJobE@Base 4.80.0
 _ZTIN6KGAPI25Drive23ChildReferenceDeleteJobE@Base 4.80.0
 _ZTIN6KGAPI25Drive23ParentReferenceFetchJobE@Base 4.80.0
 _ZTIN6KGAPI25Drive24ParentReferenceCreateJobE@Base 4.80.0
 _ZTIN6KGAPI25Drive24ParentReferenceDeleteJobE@Base 4.80.0
 _ZTIN6KGAPI25Drive3App4IconE@Base 4.80.0
 _ZTIN6KGAPI25Drive3AppE@Base 4.80.0
 _ZTIN6KGAPI25Drive4File13IndexableTextE@Base 4.80.0
 _ZTIN6KGAPI25Drive4File18ImageMediaMetadata8LocationE@Base 4.80.0
 _ZTIN6KGAPI25Drive4File18ImageMediaMetadataE@Base 4.80.0
 _ZTIN6KGAPI25Drive4File6LabelsE@Base 4.80.0
 _ZTIN6KGAPI25Drive4File9ThumbnailE@Base 4.80.0
 _ZTIN6KGAPI25Drive4FileE@Base 4.80.0
 _ZTIN6KGAPI25Drive4UserE@Base 4.80.0
 _ZTIN6KGAPI25Drive5About13MaxUploadSizeE@Base 4.80.0
 _ZTIN6KGAPI25Drive5About18AdditionalRoleInfo7RoleSetE@Base 4.80.0
 _ZTIN6KGAPI25Drive5About18AdditionalRoleInfoE@Base 4.80.0
 _ZTIN6KGAPI25Drive5About6FormatE@Base 4.80.0
 _ZTIN6KGAPI25Drive5About7FeatureE@Base 4.80.0
 _ZTIN6KGAPI25Drive5AboutE@Base 4.80.0
 _ZTIN6KGAPI25Drive6ChangeE@Base 4.80.0
 _ZTIN6KGAPI25Drive8RevisionE@Base 4.80.0
 _ZTSN6KGAPI25Drive10PermissionE@Base 4.80.0
 _ZTSN6KGAPI25Drive11AppFetchJobE@Base 4.80.0
 _ZTSN6KGAPI25Drive11FileCopyJobE@Base 4.80.0
 _ZTSN6KGAPI25Drive12FileFetchJobE@Base 4.80.0
 _ZTSN6KGAPI25Drive12FileTouchJobE@Base 4.80.0
 _ZTSN6KGAPI25Drive12FileTrashJobE@Base 4.80.0
 _ZTSN6KGAPI25Drive13AboutFetchJobE@Base 4.80.0
 _ZTSN6KGAPI25Drive13FileCreateJobE@Base 4.80.0
 _ZTSN6KGAPI25Drive13FileDeleteJobE@Base 4.80.0
 _ZTSN6KGAPI25Drive13FileModifyJobE@Base 4.80.0
 _ZTSN6KGAPI25Drive14ChangeFetchJobE@Base 4.80.0
 _ZTSN6KGAPI25Drive14ChildReferenceE@Base 4.80.0
 _ZTSN6KGAPI25Drive14FileUntrashJobE@Base 4.80.0
 _ZTSN6KGAPI25Drive15ParentReferenceE@Base 4.80.0
 _ZTSN6KGAPI25Drive16RevisionFetchJobE@Base 4.80.0
 _ZTSN6KGAPI25Drive17RevisionDeleteJobE@Base 4.80.0
 _ZTSN6KGAPI25Drive17RevisionModifyJobE@Base 4.80.0
 _ZTSN6KGAPI25Drive18PermissionFetchJobE@Base 4.80.0
 _ZTSN6KGAPI25Drive19FileAbstractDataJobE@Base 4.80.0
 _ZTSN6KGAPI25Drive19FileFetchContentJobE@Base 4.80.0
 _ZTSN6KGAPI25Drive19PermissionCreateJobE@Base 4.80.0
 _ZTSN6KGAPI25Drive19PermissionDeleteJobE@Base 4.80.0
 _ZTSN6KGAPI25Drive19PermissionModifyJobE@Base 4.80.0
 _ZTSN6KGAPI25Drive21FileAbstractModifyJobE@Base 4.80.0
 _ZTSN6KGAPI25Drive21FileAbstractUploadJobE@Base 4.80.0
 _ZTSN6KGAPI25Drive22ChildReferenceFetchJobE@Base 4.80.0
 _ZTSN6KGAPI25Drive23ChildReferenceCreateJobE@Base 4.80.0
 _ZTSN6KGAPI25Drive23ChildReferenceDeleteJobE@Base 4.80.0
 _ZTSN6KGAPI25Drive23ParentReferenceFetchJobE@Base 4.80.0
 _ZTSN6KGAPI25Drive24ParentReferenceCreateJobE@Base 4.80.0
 _ZTSN6KGAPI25Drive24ParentReferenceDeleteJobE@Base 4.80.0
 _ZTSN6KGAPI25Drive3App4IconE@Base 4.80.0
 _ZTSN6KGAPI25Drive3AppE@Base 4.80.0
 _ZTSN6KGAPI25Drive4File13IndexableTextE@Base 4.80.0
 _ZTSN6KGAPI25Drive4File18ImageMediaMetadata8LocationE@Base 4.80.0
 _ZTSN6KGAPI25Drive4File18ImageMediaMetadataE@Base 4.80.0
 _ZTSN6KGAPI25Drive4File6LabelsE@Base 4.80.0
 _ZTSN6KGAPI25Drive4File9ThumbnailE@Base 4.80.0
 _ZTSN6KGAPI25Drive4FileE@Base 4.80.0
 _ZTSN6KGAPI25Drive4UserE@Base 4.80.0
 _ZTSN6KGAPI25Drive5About13MaxUploadSizeE@Base 4.80.0
 _ZTSN6KGAPI25Drive5About18AdditionalRoleInfo7RoleSetE@Base 4.80.0
 _ZTSN6KGAPI25Drive5About18AdditionalRoleInfoE@Base 4.80.0
 _ZTSN6KGAPI25Drive5About6FormatE@Base 4.80.0
 _ZTSN6KGAPI25Drive5About7FeatureE@Base 4.80.0
 _ZTSN6KGAPI25Drive5AboutE@Base 4.80.0
 _ZTSN6KGAPI25Drive6ChangeE@Base 4.80.0
 _ZTSN6KGAPI25Drive8RevisionE@Base 4.80.0
 _ZTVN6KGAPI25Drive10PermissionE@Base 4.80.0
 _ZTVN6KGAPI25Drive11AppFetchJobE@Base 4.80.0
 _ZTVN6KGAPI25Drive11FileCopyJobE@Base 4.80.0
 _ZTVN6KGAPI25Drive12FileFetchJobE@Base 4.80.0
 _ZTVN6KGAPI25Drive12FileTouchJobE@Base 4.80.0
 _ZTVN6KGAPI25Drive12FileTrashJobE@Base 4.80.0
 _ZTVN6KGAPI25Drive13AboutFetchJobE@Base 4.80.0
 _ZTVN6KGAPI25Drive13FileCreateJobE@Base 4.80.0
 _ZTVN6KGAPI25Drive13FileDeleteJobE@Base 4.80.0
 _ZTVN6KGAPI25Drive13FileModifyJobE@Base 4.80.0
 _ZTVN6KGAPI25Drive14ChangeFetchJobE@Base 4.80.0
 _ZTVN6KGAPI25Drive14ChildReferenceE@Base 4.80.0
 _ZTVN6KGAPI25Drive14FileUntrashJobE@Base 4.80.0
 _ZTVN6KGAPI25Drive15ParentReferenceE@Base 4.80.0
 _ZTVN6KGAPI25Drive16RevisionFetchJobE@Base 4.80.0
 _ZTVN6KGAPI25Drive17RevisionDeleteJobE@Base 4.80.0
 _ZTVN6KGAPI25Drive17RevisionModifyJobE@Base 4.80.0
 _ZTVN6KGAPI25Drive18PermissionFetchJobE@Base 4.80.0
 _ZTVN6KGAPI25Drive19FileAbstractDataJobE@Base 4.80.0
 _ZTVN6KGAPI25Drive19FileFetchContentJobE@Base 4.80.0
 _ZTVN6KGAPI25Drive19PermissionCreateJobE@Base 4.80.0
 _ZTVN6KGAPI25Drive19PermissionDeleteJobE@Base 4.80.0
 _ZTVN6KGAPI25Drive19PermissionModifyJobE@Base 4.80.0
 _ZTVN6KGAPI25Drive21FileAbstractModifyJobE@Base 4.80.0
 _ZTVN6KGAPI25Drive21FileAbstractUploadJobE@Base 4.80.0
 _ZTVN6KGAPI25Drive22ChildReferenceFetchJobE@Base 4.80.0
 _ZTVN6KGAPI25Drive23ChildReferenceCreateJobE@Base 4.80.0
 _ZTVN6KGAPI25Drive23ChildReferenceDeleteJobE@Base 4.80.0
 _ZTVN6KGAPI25Drive23ParentReferenceFetchJobE@Base 4.80.0
 _ZTVN6KGAPI25Drive24ParentReferenceCreateJobE@Base 4.80.0
 _ZTVN6KGAPI25Drive24ParentReferenceDeleteJobE@Base 4.80.0
 _ZTVN6KGAPI25Drive3App4IconE@Base 4.80.0
 _ZTVN6KGAPI25Drive3AppE@Base 4.80.0
 _ZTVN6KGAPI25Drive4File13IndexableTextE@Base 4.80.0
 _ZTVN6KGAPI25Drive4File18ImageMediaMetadata8LocationE@Base 4.80.0
 _ZTVN6KGAPI25Drive4File18ImageMediaMetadataE@Base 4.80.0
 _ZTVN6KGAPI25Drive4File6LabelsE@Base 4.80.0
 _ZTVN6KGAPI25Drive4File9ThumbnailE@Base 4.80.0
 _ZTVN6KGAPI25Drive4FileE@Base 4.80.0
 _ZTVN6KGAPI25Drive4UserE@Base 4.80.0
 _ZTVN6KGAPI25Drive5About13MaxUploadSizeE@Base 4.80.0
 _ZTVN6KGAPI25Drive5About18AdditionalRoleInfo7RoleSetE@Base 4.80.0
 _ZTVN6KGAPI25Drive5About18AdditionalRoleInfoE@Base 4.80.0
 _ZTVN6KGAPI25Drive5About6FormatE@Base 4.80.0
 _ZTVN6KGAPI25Drive5About7FeatureE@Base 4.80.0
 _ZTVN6KGAPI25Drive5AboutE@Base 4.80.0
 _ZTVN6KGAPI25Drive6ChangeE@Base 4.80.0
 _ZTVN6KGAPI25Drive8RevisionE@Base 4.80.0
