# SymbolsHelper-Confirmed: 4.80.0 amd64
libKF5GAPIMaps.so.5 libkf5gapimaps5 #MINVER#
 _ZN6KGAPI212StaticMapUrl10setMapTypeENS0_7MapTypeE@Base 4.80.0
 _ZN6KGAPI212StaticMapUrl10setMarkersERK5QListINS_15StaticMapMarkerEE@Base 4.80.0
 _ZN6KGAPI212StaticMapUrl11setLocationERK7QString@Base 4.80.0
 _ZN6KGAPI212StaticMapUrl11setLocationERKN9KContacts3GeoE@Base 4.80.0
 _ZN6KGAPI212StaticMapUrl11setLocationERKN9KContacts7AddressE@Base 4.80.0
 _ZN6KGAPI212StaticMapUrl12setZoomLevelEj@Base 4.80.0
 _ZN6KGAPI212StaticMapUrl13setSensorUsedEb@Base 4.80.0
 _ZN6KGAPI212StaticMapUrl18setVisibleLocationERK7QString@Base 4.80.0
 _ZN6KGAPI212StaticMapUrl18setVisibleLocationERKN9KContacts3GeoE@Base 4.80.0
 _ZN6KGAPI212StaticMapUrl18setVisibleLocationERKN9KContacts7AddressE@Base 4.80.0
 _ZN6KGAPI212StaticMapUrl7Private4initERKS1_@Base 4.80.0
 _ZN6KGAPI212StaticMapUrl7PrivateC1ERKS1_@Base 4.80.0
 _ZN6KGAPI212StaticMapUrl7PrivateC1Ev@Base 4.80.0
 _ZN6KGAPI212StaticMapUrl7PrivateC2ERKS1_@Base 4.80.0
 _ZN6KGAPI212StaticMapUrl7PrivateC2Ev@Base 4.80.0
 _ZN6KGAPI212StaticMapUrl7setPathERKNS_13StaticMapPathE@Base 4.80.0
 _ZN6KGAPI212StaticMapUrl7setSizeERK5QSize@Base 4.80.0
 _ZN6KGAPI212StaticMapUrl8setPathsERK5QListINS_13StaticMapPathEE@Base 4.80.0
 _ZN6KGAPI212StaticMapUrl8setScaleENS0_5ScaleE@Base 4.80.0
 _ZN6KGAPI212StaticMapUrl9setFormatENS0_11ImageFormatE@Base 4.80.0
 _ZN6KGAPI212StaticMapUrl9setMarkerERKNS_15StaticMapMarkerE@Base 4.80.0
 _ZN6KGAPI212StaticMapUrlC1ERK7QStringRK5QSizejb@Base 4.80.0
 _ZN6KGAPI212StaticMapUrlC1ERKN9KContacts3GeoERK5QSizejb@Base 4.80.0
 _ZN6KGAPI212StaticMapUrlC1ERKN9KContacts7AddressERK5QSizejb@Base 4.80.0
 _ZN6KGAPI212StaticMapUrlC1ERKS0_@Base 4.80.0
 _ZN6KGAPI212StaticMapUrlC1Ev@Base 4.80.0
 _ZN6KGAPI212StaticMapUrlC2ERK7QStringRK5QSizejb@Base 4.80.0
 _ZN6KGAPI212StaticMapUrlC2ERKN9KContacts3GeoERK5QSizejb@Base 4.80.0
 _ZN6KGAPI212StaticMapUrlC2ERKN9KContacts7AddressERK5QSizejb@Base 4.80.0
 _ZN6KGAPI212StaticMapUrlC2ERKS0_@Base 4.80.0
 _ZN6KGAPI212StaticMapUrlC2Ev@Base 4.80.0
 _ZN6KGAPI212StaticMapUrlD0Ev@Base 4.80.0
 _ZN6KGAPI212StaticMapUrlD1Ev@Base 4.80.0
 _ZN6KGAPI212StaticMapUrlD2Ev@Base 4.80.0
 _ZN6KGAPI212StaticMapUrlaSERKS0_@Base 4.80.0
 _ZN6KGAPI213StaticMapPath12setFillColorERK6QColor@Base 4.80.0
 _ZN6KGAPI213StaticMapPath12setLocationsERK11QStringList@Base 4.80.0
 _ZN6KGAPI213StaticMapPath12setLocationsERK5QListIN9KContacts3GeoEE@Base 4.80.0
 _ZN6KGAPI213StaticMapPath12setLocationsERK7QVectorIN9KContacts7AddressEE@Base 4.80.0
 _ZN6KGAPI213StaticMapPath7Private4initERKS1_@Base 4.80.0
 _ZN6KGAPI213StaticMapPath7PrivateC1ERKS1_@Base 4.80.0
 _ZN6KGAPI213StaticMapPath7PrivateC1Ev@Base 4.80.0
 _ZN6KGAPI213StaticMapPath7PrivateC2ERKS1_@Base 4.80.0
 _ZN6KGAPI213StaticMapPath7PrivateC2Ev@Base 4.80.0
 _ZN6KGAPI213StaticMapPath8setColorERK6QColor@Base 4.80.0
 _ZN6KGAPI213StaticMapPath9setWeightEh@Base 4.80.0
 _ZN6KGAPI213StaticMapPathC1ERK11QStringListhRK6QColorS6_@Base 4.80.0
 _ZN6KGAPI213StaticMapPathC1ERK5QListIN9KContacts3GeoEEhRK6QColorS9_@Base 4.80.0
 _ZN6KGAPI213StaticMapPathC1ERK7QVectorIN9KContacts7AddressEEhRK6QColorS9_@Base 4.80.0
 _ZN6KGAPI213StaticMapPathC1ERKS0_@Base 4.80.0
 _ZN6KGAPI213StaticMapPathC1Ev@Base 4.80.0
 _ZN6KGAPI213StaticMapPathC2ERK11QStringListhRK6QColorS6_@Base 4.80.0
 _ZN6KGAPI213StaticMapPathC2ERK5QListIN9KContacts3GeoEEhRK6QColorS9_@Base 4.80.0
 _ZN6KGAPI213StaticMapPathC2ERK7QVectorIN9KContacts7AddressEEhRK6QColorS9_@Base 4.80.0
 _ZN6KGAPI213StaticMapPathC2ERKS0_@Base 4.80.0
 _ZN6KGAPI213StaticMapPathC2Ev@Base 4.80.0
 _ZN6KGAPI213StaticMapPathD1Ev@Base 4.80.0
 _ZN6KGAPI213StaticMapPathD2Ev@Base 4.80.0
 _ZN6KGAPI213StaticMapPathaSERKS0_@Base 4.80.0
 _ZN6KGAPI215StaticMapMarker11setLocationERK7QString@Base 4.80.0
 _ZN6KGAPI215StaticMapMarker11setLocationERKN9KContacts3GeoE@Base 4.80.0
 _ZN6KGAPI215StaticMapMarker11setLocationERKN9KContacts7AddressE@Base 4.80.0
 _ZN6KGAPI215StaticMapMarker12setLocationsERK11QStringList@Base 4.80.0
 _ZN6KGAPI215StaticMapMarker12setLocationsERK5QListIN9KContacts3GeoEE@Base 4.80.0
 _ZN6KGAPI215StaticMapMarker12setLocationsERK7QVectorIN9KContacts7AddressEE@Base 4.80.0
 _ZN6KGAPI215StaticMapMarker7Private4initERKS1_@Base 4.80.0
 _ZN6KGAPI215StaticMapMarker7PrivateC1ERKS1_@Base 4.80.0
 _ZN6KGAPI215StaticMapMarker7PrivateC1Ev@Base 4.80.0
 _ZN6KGAPI215StaticMapMarker7PrivateC2ERKS1_@Base 4.80.0
 _ZN6KGAPI215StaticMapMarker7PrivateC2Ev@Base 4.80.0
 _ZN6KGAPI215StaticMapMarker7setSizeENS0_10MarkerSizeE@Base 4.80.0
 _ZN6KGAPI215StaticMapMarker8setColorERK6QColor@Base 4.80.0
 _ZN6KGAPI215StaticMapMarker8setLabelERK5QChar@Base 4.80.0
 _ZN6KGAPI215StaticMapMarkerC1ERK11QStringListRK5QCharNS0_10MarkerSizeERK6QColor@Base 4.80.0
 _ZN6KGAPI215StaticMapMarkerC1ERK5QListIN9KContacts3GeoEERK5QCharNS0_10MarkerSizeERK6QColor@Base 4.80.0
 _ZN6KGAPI215StaticMapMarkerC1ERK7QStringRK5QCharNS0_10MarkerSizeERK6QColor@Base 4.80.0
 _ZN6KGAPI215StaticMapMarkerC1ERK7QVectorIN9KContacts7AddressEERK5QCharNS0_10MarkerSizeERK6QColor@Base 4.80.0
 _ZN6KGAPI215StaticMapMarkerC1ERKN9KContacts3GeoERK5QCharNS0_10MarkerSizeERK6QColor@Base 4.80.0
 _ZN6KGAPI215StaticMapMarkerC1ERKN9KContacts7AddressERK5QCharNS0_10MarkerSizeERK6QColor@Base 4.80.0
 _ZN6KGAPI215StaticMapMarkerC1ERKS0_@Base 4.80.0
 _ZN6KGAPI215StaticMapMarkerC1Ev@Base 4.80.0
 _ZN6KGAPI215StaticMapMarkerC2ERK11QStringListRK5QCharNS0_10MarkerSizeERK6QColor@Base 4.80.0
 _ZN6KGAPI215StaticMapMarkerC2ERK5QListIN9KContacts3GeoEERK5QCharNS0_10MarkerSizeERK6QColor@Base 4.80.0
 _ZN6KGAPI215StaticMapMarkerC2ERK7QStringRK5QCharNS0_10MarkerSizeERK6QColor@Base 4.80.0
 _ZN6KGAPI215StaticMapMarkerC2ERK7QVectorIN9KContacts7AddressEERK5QCharNS0_10MarkerSizeERK6QColor@Base 4.80.0
 _ZN6KGAPI215StaticMapMarkerC2ERKN9KContacts3GeoERK5QCharNS0_10MarkerSizeERK6QColor@Base 4.80.0
 _ZN6KGAPI215StaticMapMarkerC2ERKN9KContacts7AddressERK5QCharNS0_10MarkerSizeERK6QColor@Base 4.80.0
 _ZN6KGAPI215StaticMapMarkerC2ERKS0_@Base 4.80.0
 _ZN6KGAPI215StaticMapMarkerC2Ev@Base 4.80.0
 _ZN6KGAPI215StaticMapMarkerD1Ev@Base 4.80.0
 _ZN6KGAPI215StaticMapMarkerD2Ev@Base 4.80.0
 _ZN6KGAPI215StaticMapMarkeraSERKS0_@Base 4.80.0
 _ZN6KGAPI221StaticMapTileFetchJob11handleReplyEPK13QNetworkReplyRK10QByteArray@Base 4.80.0
 _ZN6KGAPI221StaticMapTileFetchJob11qt_metacallEN11QMetaObject4CallEiPPv@Base 4.80.0
 _ZN6KGAPI221StaticMapTileFetchJob11qt_metacastEPKc@Base 4.80.0
 _ZN6KGAPI221StaticMapTileFetchJob15dispatchRequestEP21QNetworkAccessManagerRK15QNetworkRequestRK10QByteArrayRK7QString@Base 4.80.0
 _ZN6KGAPI221StaticMapTileFetchJob16staticMetaObjectE@Base 4.80.0
 _ZN6KGAPI221StaticMapTileFetchJob5startEv@Base 4.80.0
 _ZN6KGAPI221StaticMapTileFetchJobC1ERK4QUrlP7QObject@Base 4.80.0
 _ZN6KGAPI221StaticMapTileFetchJobC1ERKNS_12StaticMapUrlEP7QObject@Base 4.80.0
 _ZN6KGAPI221StaticMapTileFetchJobC2ERK4QUrlP7QObject@Base 4.80.0
 _ZN6KGAPI221StaticMapTileFetchJobC2ERKNS_12StaticMapUrlEP7QObject@Base 4.80.0
 _ZN6KGAPI221StaticMapTileFetchJobD0Ev@Base 4.80.0
 _ZN6KGAPI221StaticMapTileFetchJobD1Ev@Base 4.80.0
 _ZN6KGAPI221StaticMapTileFetchJobD2Ev@Base 4.80.0
 _ZNK6KGAPI212StaticMapUrl10sensorUsedEv@Base 4.80.0
 _ZNK6KGAPI212StaticMapUrl11locationGeoEv@Base 4.80.0
 _ZNK6KGAPI212StaticMapUrl12locationTypeEv@Base 4.80.0
 _ZNK6KGAPI212StaticMapUrl14locationStringEv@Base 4.80.0
 _ZNK6KGAPI212StaticMapUrl15locationAddressEv@Base 4.80.0
 _ZNK6KGAPI212StaticMapUrl18visibleLocationGeoEv@Base 4.80.0
 _ZNK6KGAPI212StaticMapUrl19visibleLocationTypeEv@Base 4.80.0
 _ZNK6KGAPI212StaticMapUrl21visibleLocationStringEv@Base 4.80.0
 _ZNK6KGAPI212StaticMapUrl22visibleLocationAddressEv@Base 4.80.0
 _ZNK6KGAPI212StaticMapUrl3urlEv@Base 4.80.0
 _ZNK6KGAPI212StaticMapUrl4sizeEv@Base 4.80.0
 _ZNK6KGAPI212StaticMapUrl5pathsEv@Base 4.80.0
 _ZNK6KGAPI212StaticMapUrl5scaleEv@Base 4.80.0
 _ZNK6KGAPI212StaticMapUrl6formatEv@Base 4.80.0
 _ZNK6KGAPI212StaticMapUrl7isValidEv@Base 4.80.0
 _ZNK6KGAPI212StaticMapUrl7mapTypeEv@Base 4.80.0
 _ZNK6KGAPI212StaticMapUrl7markersEv@Base 4.80.0
 _ZNK6KGAPI212StaticMapUrl9zoomLevelEv@Base 4.80.0
 _ZNK6KGAPI213StaticMapPath12locationTypeEv@Base 4.80.0
 _ZNK6KGAPI213StaticMapPath12locationsGeoEv@Base 4.80.0
 _ZNK6KGAPI213StaticMapPath15locationsStringEv@Base 4.80.0
 _ZNK6KGAPI213StaticMapPath16locationsAddressEv@Base 4.80.0
 _ZNK6KGAPI213StaticMapPath5colorEv@Base 4.80.0
 _ZNK6KGAPI213StaticMapPath6weightEv@Base 4.80.0
 _ZNK6KGAPI213StaticMapPath7isValidEv@Base 4.80.0
 _ZNK6KGAPI213StaticMapPath8toStringEv@Base 4.80.0
 _ZNK6KGAPI213StaticMapPath9fillColorEv@Base 4.80.0
 _ZNK6KGAPI215StaticMapMarker12locationTypeEv@Base 4.80.0
 _ZNK6KGAPI215StaticMapMarker12locationsGeoEv@Base 4.80.0
 _ZNK6KGAPI215StaticMapMarker15locationsStringEv@Base 4.80.0
 _ZNK6KGAPI215StaticMapMarker16locationsAddressEv@Base 4.80.0
 _ZNK6KGAPI215StaticMapMarker4sizeEv@Base 4.80.0
 _ZNK6KGAPI215StaticMapMarker5colorEv@Base 4.80.0
 _ZNK6KGAPI215StaticMapMarker5labelEv@Base 4.80.0
 _ZNK6KGAPI215StaticMapMarker7isValidEv@Base 4.80.0
 _ZNK6KGAPI215StaticMapMarker8toStringEv@Base 4.80.0
 _ZNK6KGAPI221StaticMapTileFetchJob10metaObjectEv@Base 4.80.0
 _ZNK6KGAPI221StaticMapTileFetchJob10tilePixmapEv@Base 4.80.0
 _ZTIN6KGAPI212StaticMapUrlE@Base 4.80.0
 _ZTIN6KGAPI221StaticMapTileFetchJobE@Base 4.80.0
 _ZTSN6KGAPI212StaticMapUrlE@Base 4.80.0
 _ZTSN6KGAPI221StaticMapTileFetchJobE@Base 4.80.0
 _ZTVN6KGAPI212StaticMapUrlE@Base 4.80.0
 _ZTVN6KGAPI221StaticMapTileFetchJobE@Base 4.80.0
