# SymbolsHelper-Confirmed: 4.80.0 amd64
libKF5GAPILatitude.so.5 libkf5gapilatitude5 #MINVER#
 _ZN6KGAPI215LatitudeService10APIVersionEv@Base 4.80.0
 _ZN6KGAPI215LatitudeService14JSONToLocationERK10QByteArray@Base 4.80.0
 _ZN6KGAPI215LatitudeService14locationToJSONERK14QSharedPointerINS_8LocationEE@Base 4.80.0
 _ZN6KGAPI215LatitudeService17deleteLocationUrlEx@Base 4.80.0
 _ZN6KGAPI215LatitudeService17insertLocationUrlEv@Base 4.80.0
 _ZN6KGAPI215LatitudeService18locationHistoryUrlENS_8Latitude11GranularityEixx@Base 4.80.0
 _ZN6KGAPI215LatitudeService19retrieveLocationUrlExNS_8Latitude11GranularityE@Base 4.80.0
 _ZN6KGAPI215LatitudeService21parseLocationJSONFeedERK10QByteArrayRNS_8FeedDataE@Base 4.80.0
 _ZN6KGAPI215LatitudeService24deleteCurrentLocationUrlEv@Base 4.80.0
 _ZN6KGAPI215LatitudeService24insertCurrentLocationUrlEv@Base 4.80.0
 _ZN6KGAPI215LatitudeService26retrieveCurrentLocationUrlENS_8Latitude11GranularityE@Base 4.80.0
 _ZN6KGAPI216LocationFetchJob11qt_metacallEN11QMetaObject4CallEiPPv@Base 4.80.0
 _ZN6KGAPI216LocationFetchJob11qt_metacastEPKc@Base 4.80.0
 _ZN6KGAPI216LocationFetchJob14setGranularityENS_8Latitude11GranularityE@Base 4.80.0
 _ZN6KGAPI216LocationFetchJob16staticMetaObjectE@Base 4.80.0
 _ZN6KGAPI216LocationFetchJob20handleReplyWithItemsEPK13QNetworkReplyRK10QByteArray@Base 4.80.0
 _ZN6KGAPI216LocationFetchJob5startEv@Base 4.80.0
 _ZN6KGAPI216LocationFetchJob7PrivateC1Ev@Base 4.80.0
 _ZN6KGAPI216LocationFetchJob7PrivateC2Ev@Base 4.80.0
 _ZN6KGAPI216LocationFetchJobC1ERK14QSharedPointerINS_7AccountEEP7QObject@Base 4.80.0
 _ZN6KGAPI216LocationFetchJobC1ExRK14QSharedPointerINS_7AccountEEP7QObject@Base 4.80.0
 _ZN6KGAPI216LocationFetchJobC2ERK14QSharedPointerINS_7AccountEEP7QObject@Base 4.80.0
 _ZN6KGAPI216LocationFetchJobC2ExRK14QSharedPointerINS_7AccountEEP7QObject@Base 4.80.0
 _ZN6KGAPI216LocationFetchJobD0Ev@Base 4.80.0
 _ZN6KGAPI216LocationFetchJobD1Ev@Base 4.80.0
 _ZN6KGAPI216LocationFetchJobD2Ev@Base 4.80.0
 _ZN6KGAPI217LocationCreateJob11qt_metacallEN11QMetaObject4CallEiPPv@Base 4.80.0
 _ZN6KGAPI217LocationCreateJob11qt_metacastEPKc@Base 4.80.0
 _ZN6KGAPI217LocationCreateJob16staticMetaObjectE@Base 4.80.0
 _ZN6KGAPI217LocationCreateJob20handleReplyWithItemsEPK13QNetworkReplyRK10QByteArray@Base 4.80.0
 _ZN6KGAPI217LocationCreateJob5startEv@Base 4.80.0
 _ZN6KGAPI217LocationCreateJob7PrivateC1Ev@Base 4.80.0
 _ZN6KGAPI217LocationCreateJob7PrivateC2Ev@Base 4.80.0
 _ZN6KGAPI217LocationCreateJobC1ERK14QSharedPointerINS_8LocationEEbRKS1_INS_7AccountEEP7QObject@Base 4.80.0
 _ZN6KGAPI217LocationCreateJobC2ERK14QSharedPointerINS_8LocationEEbRKS1_INS_7AccountEEP7QObject@Base 4.80.0
 _ZN6KGAPI217LocationCreateJobD0Ev@Base 4.80.0
 _ZN6KGAPI217LocationCreateJobD1Ev@Base 4.80.0
 _ZN6KGAPI217LocationCreateJobD2Ev@Base 4.80.0
 _ZN6KGAPI217LocationDeleteJob11qt_metacallEN11QMetaObject4CallEiPPv@Base 4.80.0
 _ZN6KGAPI217LocationDeleteJob11qt_metacastEPKc@Base 4.80.0
 _ZN6KGAPI217LocationDeleteJob16staticMetaObjectE@Base 4.80.0
 _ZN6KGAPI217LocationDeleteJob5startEv@Base 4.80.0
 _ZN6KGAPI217LocationDeleteJob7PrivateC1Ev@Base 4.80.0
 _ZN6KGAPI217LocationDeleteJob7PrivateC2Ev@Base 4.80.0
 _ZN6KGAPI217LocationDeleteJobC1ERK14QSharedPointerINS_7AccountEEP7QObject@Base 4.80.0
 _ZN6KGAPI217LocationDeleteJobC1ERK14QSharedPointerINS_8LocationEERKS1_INS_7AccountEEP7QObject@Base 4.80.0
 _ZN6KGAPI217LocationDeleteJobC1EyRK14QSharedPointerINS_7AccountEEP7QObject@Base 4.80.0
 _ZN6KGAPI217LocationDeleteJobC2ERK14QSharedPointerINS_7AccountEEP7QObject@Base 4.80.0
 _ZN6KGAPI217LocationDeleteJobC2ERK14QSharedPointerINS_8LocationEERKS1_INS_7AccountEEP7QObject@Base 4.80.0
 _ZN6KGAPI217LocationDeleteJobC2EyRK14QSharedPointerINS_7AccountEEP7QObject@Base 4.80.0
 _ZN6KGAPI217LocationDeleteJobD0Ev@Base 4.80.0
 _ZN6KGAPI217LocationDeleteJobD1Ev@Base 4.80.0
 _ZN6KGAPI217LocationDeleteJobD2Ev@Base 4.80.0
 _ZN6KGAPI223LocationFetchHistoryJob11qt_metacallEN11QMetaObject4CallEiPPv@Base 4.80.0
 _ZN6KGAPI223LocationFetchHistoryJob11qt_metacastEPKc@Base 4.80.0
 _ZN6KGAPI223LocationFetchHistoryJob13setMaxResultsEi@Base 4.80.0
 _ZN6KGAPI223LocationFetchHistoryJob14setGranularityENS_8Latitude11GranularityE@Base 4.80.0
 _ZN6KGAPI223LocationFetchHistoryJob15setMaxTimestampEx@Base 4.80.0
 _ZN6KGAPI223LocationFetchHistoryJob15setMinTimestampEx@Base 4.80.0
 _ZN6KGAPI223LocationFetchHistoryJob16staticMetaObjectE@Base 4.80.0
 _ZN6KGAPI223LocationFetchHistoryJob20handleReplyWithItemsEPK13QNetworkReplyRK10QByteArray@Base 4.80.0
 _ZN6KGAPI223LocationFetchHistoryJob5startEv@Base 4.80.0
 _ZN6KGAPI223LocationFetchHistoryJob7Private13createRequestERK4QUrl@Base 4.80.0
 _ZN6KGAPI223LocationFetchHistoryJob7PrivateC1EPS0_@Base 4.80.0
 _ZN6KGAPI223LocationFetchHistoryJob7PrivateC2EPS0_@Base 4.80.0
 _ZN6KGAPI223LocationFetchHistoryJobC1ERK14QSharedPointerINS_7AccountEEP7QObject@Base 4.80.0
 _ZN6KGAPI223LocationFetchHistoryJobC2ERK14QSharedPointerINS_7AccountEEP7QObject@Base 4.80.0
 _ZN6KGAPI223LocationFetchHistoryJobD0Ev@Base 4.80.0
 _ZN6KGAPI223LocationFetchHistoryJobD1Ev@Base 4.80.0
 _ZN6KGAPI223LocationFetchHistoryJobD2Ev@Base 4.80.0
 _ZN6KGAPI28Latitude11qt_metacallEN11QMetaObject4CallEiPPv@Base 4.80.0
 _ZN6KGAPI28Latitude11qt_metacastEPKc@Base 4.80.0
 _ZN6KGAPI28Latitude16staticMetaObjectE@Base 4.80.0
 _ZN6KGAPI28Location10setHeadingERKi@Base 4.80.0
 _ZN6KGAPI28Location11setAccuracyERKi@Base 4.80.0
 _ZN6KGAPI28Location11setAltitudeERKi@Base 4.80.0
 _ZN6KGAPI28Location12setTimestampERKy@Base 4.80.0
 _ZN6KGAPI28Location19setAltitudeAccuracyERKi@Base 4.80.0
 _ZN6KGAPI28Location7PrivateC1ERKS1_@Base 4.80.0
 _ZN6KGAPI28Location7PrivateC1Ev@Base 4.80.0
 _ZN6KGAPI28Location7PrivateC2ERKS1_@Base 4.80.0
 _ZN6KGAPI28Location7PrivateC2Ev@Base 4.80.0
 _ZN6KGAPI28Location8setSpeedERKi@Base 4.80.0
 _ZN6KGAPI28LocationC1ERKS0_@Base 4.80.0
 _ZN6KGAPI28LocationC1Eff@Base 4.80.0
 _ZN6KGAPI28LocationC1Ev@Base 4.80.0
 _ZN6KGAPI28LocationC2ERKS0_@Base 4.80.0
 _ZN6KGAPI28LocationC2Eff@Base 4.80.0
 _ZN6KGAPI28LocationC2Ev@Base 4.80.0
 _ZN6KGAPI28LocationD0Ev@Base 4.80.0
 _ZN6KGAPI28LocationD1Ev@Base 4.80.0
 _ZN6KGAPI28LocationD2Ev@Base 4.80.0
 _ZNK6KGAPI216LocationFetchJob10metaObjectEv@Base 4.80.0
 _ZNK6KGAPI216LocationFetchJob11granularityEv@Base 4.80.0
 _ZNK6KGAPI217LocationCreateJob10metaObjectEv@Base 4.80.0
 _ZNK6KGAPI217LocationDeleteJob10metaObjectEv@Base 4.80.0
 _ZNK6KGAPI223LocationFetchHistoryJob10maxResultsEv@Base 4.80.0
 _ZNK6KGAPI223LocationFetchHistoryJob10metaObjectEv@Base 4.80.0
 _ZNK6KGAPI223LocationFetchHistoryJob11granularityEv@Base 4.80.0
 _ZNK6KGAPI223LocationFetchHistoryJob12maxTimestampEv@Base 4.80.0
 _ZNK6KGAPI223LocationFetchHistoryJob12minTimestampEv@Base 4.80.0
 _ZNK6KGAPI28Latitude10metaObjectEv@Base 4.80.0
 _ZNK6KGAPI28Location16altitudeAccuracyEv@Base 4.80.0
 _ZNK6KGAPI28Location5speedEv@Base 4.80.0
 _ZNK6KGAPI28Location7headingEv@Base 4.80.0
 _ZNK6KGAPI28Location8accuracyEv@Base 4.80.0
 _ZNK6KGAPI28Location8altitudeEv@Base 4.80.0
 _ZNK6KGAPI28Location9timestampEv@Base 4.80.0
 _ZTIN6KGAPI216LocationFetchJobE@Base 4.80.0
 _ZTIN6KGAPI217LocationCreateJobE@Base 4.80.0
 _ZTIN6KGAPI217LocationDeleteJobE@Base 4.80.0
 _ZTIN6KGAPI223LocationFetchHistoryJobE@Base 4.80.0
 _ZTIN6KGAPI28LatitudeE@Base 4.80.0
 _ZTIN6KGAPI28LocationE@Base 4.80.0
 _ZTIN9KContacts3GeoE@Base 4.80.0
 _ZTSN6KGAPI216LocationFetchJobE@Base 4.80.0
 _ZTSN6KGAPI217LocationCreateJobE@Base 4.80.0
 _ZTSN6KGAPI217LocationDeleteJobE@Base 4.80.0
 _ZTSN6KGAPI223LocationFetchHistoryJobE@Base 4.80.0
 _ZTSN6KGAPI28LatitudeE@Base 4.80.0
 _ZTSN6KGAPI28LocationE@Base 4.80.0
 _ZTSN9KContacts3GeoE@Base 4.80.0
 _ZTVN6KGAPI216LocationFetchJobE@Base 4.80.0
 _ZTVN6KGAPI217LocationCreateJobE@Base 4.80.0
 _ZTVN6KGAPI217LocationDeleteJobE@Base 4.80.0
 _ZTVN6KGAPI223LocationFetchHistoryJobE@Base 4.80.0
 _ZTVN6KGAPI28LatitudeE@Base 4.80.0
 _ZTVN6KGAPI28LocationE@Base 4.80.0
