# SymbolsHelper-Confirmed: 2.1.80 amd64
libkgapi2.so.2 libkgapi2-2 #MINVER#
 _ZN6KGAPI210AuthWidget10setAccountERK14QSharedPointerINS_7AccountEE@Base 2.0.1
 _ZN6KGAPI210AuthWidget11qt_metacallEN11QMetaObject4CallEiPPv@Base 2.0.1
 _ZN6KGAPI210AuthWidget11qt_metacastEPKc@Base 2.0.1
 _ZN6KGAPI210AuthWidget11setPasswordERK7QString@Base 2.0.1
 _ZN6KGAPI210AuthWidget11setUsernameERK7QString@Base 2.0.1
 _ZN6KGAPI210AuthWidget12authenticateEv@Base 2.0.1
 _ZN6KGAPI210AuthWidget13authenticatedERK14QSharedPointerINS_7AccountEE@Base 2.0.1
 _ZN6KGAPI210AuthWidget16clearCredentialsEv@Base 2.0.1
 _ZN6KGAPI210AuthWidget16staticMetaObjectE@Base 2.0.1
 _ZN6KGAPI210AuthWidget18setShowProgressBarEb@Base 2.0.1
 _ZN6KGAPI210AuthWidget5errorENS_5ErrorERK7QString@Base 2.0.1
 _ZN6KGAPI210AuthWidget7Private10onSslErrorEP13QNetworkReplyRK5QListI9QSslErrorE@Base 2.1.80
 _ZN6KGAPI210AuthWidget7Private11qt_metacallEN11QMetaObject4CallEiPPv@Base 2.0.1
 _ZN6KGAPI210AuthWidget7Private11qt_metacastEPKc@Base 2.0.1
 _ZN6KGAPI210AuthWidget7Private11setProgressENS0_8ProgressE@Base 2.0.1
 _ZN6KGAPI210AuthWidget7Private14tokensReceivedEPNS_3JobE@Base 2.0.1
 _ZN6KGAPI210AuthWidget7Private15webviewFinishedEb@Base 2.1.80
 _ZN6KGAPI210AuthWidget7Private16staticMetaObjectE@Base 2.0.1
 _ZN6KGAPI210AuthWidget7Private17webviewUrlChangedERK4QUrl@Base 2.0.1
 _ZN6KGAPI210AuthWidget7Private19accountInfoReceivedEPNS_3JobE@Base 2.0.1
 _ZN6KGAPI210AuthWidget7Private7setupUiEv@Base 2.0.1
 _ZN6KGAPI210AuthWidget7Private9emitErrorENS_5ErrorERK7QString@Base 2.0.1
 _ZN6KGAPI210AuthWidget7PrivateC1EPS0_@Base 2.0.1
 _ZN6KGAPI210AuthWidget7PrivateC2EPS0_@Base 2.0.1
 _ZN6KGAPI210AuthWidget7PrivateD0Ev@Base 2.0.1
 _ZN6KGAPI210AuthWidget7PrivateD1Ev@Base 2.0.1
 _ZN6KGAPI210AuthWidget7PrivateD2Ev@Base 2.0.1
 _ZN6KGAPI210AuthWidget8progressENS0_8ProgressE@Base 2.0.1
 _ZN6KGAPI210AuthWidgetC1EP7QWidget@Base 2.0.1
 _ZN6KGAPI210AuthWidgetC2EP7QWidget@Base 2.0.1
 _ZN6KGAPI210AuthWidgetD0Ev@Base 2.0.1
 _ZN6KGAPI210AuthWidgetD1Ev@Base 2.0.1
 _ZN6KGAPI210AuthWidgetD2Ev@Base 2.0.1
 _ZN6KGAPI211AccountInfo11setBirthdayERK7QString@Base 2.0.1
 _ZN6KGAPI211AccountInfo11setPhotoUrlERK7QString@Base 2.0.1
 _ZN6KGAPI211AccountInfo11setTimezoneERK7QString@Base 2.0.1
 _ZN6KGAPI211AccountInfo12setGivenNameERK7QString@Base 2.0.1
 _ZN6KGAPI211AccountInfo13setFamilyNameERK7QString@Base 2.0.1
 _ZN6KGAPI211AccountInfo16setVerifiedEmailEb@Base 2.0.1
 _ZN6KGAPI211AccountInfo5setIdERK7QString@Base 2.0.1
 _ZN6KGAPI211AccountInfo7PrivateC1ERKS1_@Base 2.0.1
 _ZN6KGAPI211AccountInfo7PrivateC1Ev@Base 2.0.1
 _ZN6KGAPI211AccountInfo7PrivateC2ERKS1_@Base 2.0.1
 _ZN6KGAPI211AccountInfo7PrivateC2Ev@Base 2.0.1
 _ZN6KGAPI211AccountInfo7PrivateD1Ev@Base 2.0.1
 _ZN6KGAPI211AccountInfo7PrivateD2Ev@Base 2.0.1
 _ZN6KGAPI211AccountInfo7setLinkERK7QString@Base 2.0.1
 _ZN6KGAPI211AccountInfo7setNameERK7QString@Base 2.0.1
 _ZN6KGAPI211AccountInfo8fromJSONERK10QByteArray@Base 2.0.1
 _ZN6KGAPI211AccountInfo8setEmailERK7QString@Base 2.0.1
 _ZN6KGAPI211AccountInfo9setGenderERK7QString@Base 2.0.1
 _ZN6KGAPI211AccountInfo9setLocaleERK7QString@Base 2.0.1
 _ZN6KGAPI211AccountInfoC1ERKS0_@Base 2.0.1
 _ZN6KGAPI211AccountInfoC1Ev@Base 2.0.1
 _ZN6KGAPI211AccountInfoC2ERKS0_@Base 2.0.1
 _ZN6KGAPI211AccountInfoC2Ev@Base 2.0.1
 _ZN6KGAPI211AccountInfoD0Ev@Base 2.0.1
 _ZN6KGAPI211AccountInfoD1Ev@Base 2.0.1
 _ZN6KGAPI211AccountInfoD2Ev@Base 2.0.1
 _ZN6KGAPI211TaskMoveJob11handleReplyEPK13QNetworkReplyRK10QByteArray@Base 2.0.1
 _ZN6KGAPI211TaskMoveJob11qt_metacallEN11QMetaObject4CallEiPPv@Base 2.0.1
 _ZN6KGAPI211TaskMoveJob11qt_metacastEPKc@Base 2.0.1
 _ZN6KGAPI211TaskMoveJob15dispatchRequestEP21QNetworkAccessManagerRK15QNetworkRequestRK10QByteArrayRK7QString@Base 2.0.1
 _ZN6KGAPI211TaskMoveJob16staticMetaObjectE@Base 2.0.1
 _ZN6KGAPI211TaskMoveJob5startEv@Base 2.0.1
 _ZN6KGAPI211TaskMoveJob7Private15processNextTaskEv@Base 2.0.1
 _ZN6KGAPI211TaskMoveJob7PrivateC1EPS0_@Base 2.0.1
 _ZN6KGAPI211TaskMoveJob7PrivateC2EPS0_@Base 2.0.1
 _ZN6KGAPI211TaskMoveJobC1ERK11QStringListRK7QStringS6_RK14QSharedPointerINS_7AccountEEP7QObject@Base 2.0.1
 _ZN6KGAPI211TaskMoveJobC1ERK14QSharedPointerINS_4TaskEERK7QStringS8_RKS1_INS_7AccountEEP7QObject@Base 2.0.1
 _ZN6KGAPI211TaskMoveJobC1ERK5QListI14QSharedPointerINS_4TaskEEERK7QStringSA_RKS2_INS_7AccountEEP7QObject@Base 2.0.1
 _ZN6KGAPI211TaskMoveJobC1ERK7QStringS3_S3_RK14QSharedPointerINS_7AccountEEP7QObject@Base 2.0.1
 _ZN6KGAPI211TaskMoveJobC2ERK11QStringListRK7QStringS6_RK14QSharedPointerINS_7AccountEEP7QObject@Base 2.0.1
 _ZN6KGAPI211TaskMoveJobC2ERK14QSharedPointerINS_4TaskEERK7QStringS8_RKS1_INS_7AccountEEP7QObject@Base 2.0.1
 _ZN6KGAPI211TaskMoveJobC2ERK5QListI14QSharedPointerINS_4TaskEEERK7QStringSA_RKS2_INS_7AccountEEP7QObject@Base 2.0.1
 _ZN6KGAPI211TaskMoveJobC2ERK7QStringS3_S3_RK14QSharedPointerINS_7AccountEEP7QObject@Base 2.0.1
 _ZN6KGAPI211TaskMoveJobD0Ev@Base 2.0.1
 _ZN6KGAPI211TaskMoveJobD1Ev@Base 2.0.1
 _ZN6KGAPI211TaskMoveJobD2Ev@Base 2.0.1
 _ZN6KGAPI212DriveService11copyFileUrlERK7QString@Base 2.1.0
 _ZN6KGAPI212DriveService11fetchAppUrlERK7QString@Base 2.1.0
 _ZN6KGAPI212DriveService12fetchAppsUrlEv@Base 2.1.0
 _ZN6KGAPI212DriveService12fetchFileUrlERK7QString@Base 2.1.0
 _ZN6KGAPI212DriveService12touchFileUrlERK7QString@Base 2.1.0
 _ZN6KGAPI212DriveService12trashFileUrlERK7QString@Base 2.1.0
 _ZN6KGAPI212DriveService13deleteFileUrlERK7QString@Base 2.1.0
 _ZN6KGAPI212DriveService13fetchAboutUrlEbxx@Base 2.1.0
 _ZN6KGAPI212DriveService13fetchFilesUrlEv@Base 2.1.0
 _ZN6KGAPI212DriveService14fetchChangeUrlERK7QString@Base 2.1.0
 _ZN6KGAPI212DriveService14untrashFileUrlERK7QString@Base 2.1.0
 _ZN6KGAPI212DriveService15fetchChangesUrlEv@Base 2.1.0
 _ZN6KGAPI212DriveService16fetchRevisionUrlERK7QStringS3_@Base 2.1.0
 _ZN6KGAPI212DriveService17deleteRevisionUrlERK7QStringS3_@Base 2.1.0
 _ZN6KGAPI212DriveService17fetchRevisionsUrlERK7QString@Base 2.1.0
 _ZN6KGAPI212DriveService17modifyRevisionUrlERK7QStringS3_@Base 2.1.0
 _ZN6KGAPI212DriveService18fetchPermissionUrlERK7QStringS3_@Base 2.1.0
 _ZN6KGAPI212DriveService18uploadMediaFileUrlERK7QString@Base 2.1.0
 _ZN6KGAPI212DriveService19createPermissionUrlERK7QString@Base 2.1.0
 _ZN6KGAPI212DriveService19deletePermissionUrlERK7QStringS3_@Base 2.1.0
 _ZN6KGAPI212DriveService19fetchChildReferenceERK7QStringS3_@Base 2.1.0
 _ZN6KGAPI212DriveService19fetchPermissionsUrlERK7QString@Base 2.1.0
 _ZN6KGAPI212DriveService19modifyPermissionUrlERK7QStringS3_@Base 2.1.0
 _ZN6KGAPI212DriveService20createChildReferenceERK7QString@Base 2.1.0
 _ZN6KGAPI212DriveService20deleteChildReferenceERK7QStringS3_@Base 2.1.0
 _ZN6KGAPI212DriveService20fetchChildReferencesERK7QString@Base 2.1.0
 _ZN6KGAPI212DriveService21uploadMetadataFileUrlEv@Base 2.1.0
 _ZN6KGAPI212DriveService22uploadMultipartFileUrlERK7QString@Base 2.1.0
 _ZN6KGAPI212DriveService23fetchParentReferenceUrlERK7QStringS3_@Base 2.1.0
 _ZN6KGAPI212DriveService24createParentReferenceUrlERK7QString@Base 2.1.0
 _ZN6KGAPI212DriveService24deleteParentReferenceUrlERK7QStringS3_@Base 2.1.0
 _ZN6KGAPI212DriveService24fetchParentReferencesUrlERK7QString@Base 2.1.0
 _ZN6KGAPI212EventMoveJob11qt_metacallEN11QMetaObject4CallEiPPv@Base 2.0.1
 _ZN6KGAPI212EventMoveJob11qt_metacastEPKc@Base 2.0.1
 _ZN6KGAPI212EventMoveJob15dispatchRequestEP21QNetworkAccessManagerRK15QNetworkRequestRK10QByteArrayRK7QString@Base 2.0.1
 _ZN6KGAPI212EventMoveJob16staticMetaObjectE@Base 2.0.1
 _ZN6KGAPI212EventMoveJob20handleReplyWithItemsEPK13QNetworkReplyRK10QByteArray@Base 2.0.1
 _ZN6KGAPI212EventMoveJob5startEv@Base 2.0.1
 _ZN6KGAPI212EventMoveJob7Private16processNextEventEv@Base 2.0.1
 _ZN6KGAPI212EventMoveJob7PrivateC1EPS0_@Base 2.0.1
 _ZN6KGAPI212EventMoveJob7PrivateC2EPS0_@Base 2.0.1
 _ZN6KGAPI212EventMoveJobC1ERK11QStringListRK7QStringS6_RK14QSharedPointerINS_7AccountEEP7QObject@Base 2.0.1
 _ZN6KGAPI212EventMoveJobC1ERK14QSharedPointerINS_5EventEERK7QStringS8_RKS1_INS_7AccountEEP7QObject@Base 2.0.1
 _ZN6KGAPI212EventMoveJobC1ERK5QListI14QSharedPointerINS_5EventEEERK7QStringSA_RKS2_INS_7AccountEEP7QObject@Base 2.0.1
 _ZN6KGAPI212EventMoveJobC1ERK7QStringS3_S3_RK14QSharedPointerINS_7AccountEEP7QObject@Base 2.0.1
 _ZN6KGAPI212EventMoveJobC2ERK11QStringListRK7QStringS6_RK14QSharedPointerINS_7AccountEEP7QObject@Base 2.0.1
 _ZN6KGAPI212EventMoveJobC2ERK14QSharedPointerINS_5EventEERK7QStringS8_RKS1_INS_7AccountEEP7QObject@Base 2.0.1
 _ZN6KGAPI212EventMoveJobC2ERK5QListI14QSharedPointerINS_5EventEEERK7QStringSA_RKS2_INS_7AccountEEP7QObject@Base 2.0.1
 _ZN6KGAPI212EventMoveJobC2ERK7QStringS3_S3_RK14QSharedPointerINS_7AccountEEP7QObject@Base 2.0.1
 _ZN6KGAPI212EventMoveJobD0Ev@Base 2.0.1
 _ZN6KGAPI212EventMoveJobD1Ev@Base 2.0.1
 _ZN6KGAPI212EventMoveJobD2Ev@Base 2.0.1
 _ZN6KGAPI212StaticMapUrl10setMapTypeENS0_7MapTypeE@Base 2.0.1
 _ZN6KGAPI212StaticMapUrl10setMarkersERK5QListINS_15StaticMapMarkerEE@Base 2.0.1
 _ZN6KGAPI212StaticMapUrl11setLocationERK7QString@Base 2.0.1
 _ZN6KGAPI212StaticMapUrl11setLocationERKN4KABC3GeoE@Base 2.0.1
 _ZN6KGAPI212StaticMapUrl11setLocationERKN4KABC7AddressE@Base 2.0.1
 _ZN6KGAPI212StaticMapUrl12setZoomLevelEj@Base 2.0.1
 _ZN6KGAPI212StaticMapUrl13setSensorUsedEb@Base 2.0.1
 _ZN6KGAPI212StaticMapUrl18setVisibleLocationERK7QString@Base 2.0.1
 _ZN6KGAPI212StaticMapUrl18setVisibleLocationERKN4KABC3GeoE@Base 2.0.1
 _ZN6KGAPI212StaticMapUrl18setVisibleLocationERKN4KABC7AddressE@Base 2.0.1
 _ZN6KGAPI212StaticMapUrl7Private4initERKS1_@Base 2.0.1
 _ZN6KGAPI212StaticMapUrl7PrivateC1ERKS1_@Base 2.0.1
 _ZN6KGAPI212StaticMapUrl7PrivateC1Ev@Base 2.0.1
 _ZN6KGAPI212StaticMapUrl7PrivateC2ERKS1_@Base 2.0.1
 _ZN6KGAPI212StaticMapUrl7PrivateC2Ev@Base 2.0.1
 _ZN6KGAPI212StaticMapUrl7setPathERKNS_13StaticMapPathE@Base 2.0.1
 _ZN6KGAPI212StaticMapUrl7setSizeERK5QSize@Base 2.0.1
 _ZN6KGAPI212StaticMapUrl8setPathsER5QListINS_13StaticMapPathEE@Base 2.0.1
 _ZN6KGAPI212StaticMapUrl8setScaleENS0_5ScaleE@Base 2.0.1
 _ZN6KGAPI212StaticMapUrl9setFormatENS0_11ImageFormatE@Base 2.0.1
 _ZN6KGAPI212StaticMapUrl9setMarkerERKNS_15StaticMapMarkerE@Base 2.0.1
 _ZN6KGAPI212StaticMapUrlC1ERK7QStringRK5QSizejb@Base 2.0.1
 _ZN6KGAPI212StaticMapUrlC1ERKN4KABC3GeoERK5QSizejb@Base 2.0.1
 _ZN6KGAPI212StaticMapUrlC1ERKN4KABC7AddressERK5QSizejb@Base 2.0.1
 _ZN6KGAPI212StaticMapUrlC1ERKS0_@Base 2.0.1
 _ZN6KGAPI212StaticMapUrlC1Ev@Base 2.0.1
 _ZN6KGAPI212StaticMapUrlC2ERK7QStringRK5QSizejb@Base 2.0.1
 _ZN6KGAPI212StaticMapUrlC2ERKN4KABC3GeoERK5QSizejb@Base 2.0.1
 _ZN6KGAPI212StaticMapUrlC2ERKN4KABC7AddressERK5QSizejb@Base 2.0.1
 _ZN6KGAPI212StaticMapUrlC2ERKS0_@Base 2.0.1
 _ZN6KGAPI212StaticMapUrlC2Ev@Base 2.0.1
 _ZN6KGAPI212StaticMapUrlD0Ev@Base 2.0.1
 _ZN6KGAPI212StaticMapUrlD1Ev@Base 2.0.1
 _ZN6KGAPI212StaticMapUrlD2Ev@Base 2.0.1
 _ZN6KGAPI212StaticMapUrlaSERKS0_@Base 2.0.1
 _ZN6KGAPI212TaskFetchJob11qt_metacallEN11QMetaObject4CallEiPPv@Base 2.0.1
 _ZN6KGAPI212TaskFetchJob11qt_metacastEPKc@Base 2.0.1
 _ZN6KGAPI212TaskFetchJob15setCompletedMaxEy@Base 2.0.1
 _ZN6KGAPI212TaskFetchJob15setCompletedMinEy@Base 2.0.1
 _ZN6KGAPI212TaskFetchJob15setFetchDeletedEb@Base 2.0.1
 _ZN6KGAPI212TaskFetchJob16fetchOnlyUpdatedEv@Base 2.0.1
 _ZN6KGAPI212TaskFetchJob16staticMetaObjectE@Base 2.0.1
 _ZN6KGAPI212TaskFetchJob17setFetchCompletedEb@Base 2.0.1
 _ZN6KGAPI212TaskFetchJob19setFetchOnlyUpdatedEy@Base 2.0.1
 _ZN6KGAPI212TaskFetchJob20handleReplyWithItemsEPK13QNetworkReplyRK10QByteArray@Base 2.0.1
 _ZN6KGAPI212TaskFetchJob5startEv@Base 2.0.1
 _ZN6KGAPI212TaskFetchJob7Private13createRequestERK4QUrl@Base 2.0.1
 _ZN6KGAPI212TaskFetchJob7PrivateC1EPS0_@Base 2.0.1
 _ZN6KGAPI212TaskFetchJob7PrivateC2EPS0_@Base 2.0.1
 _ZN6KGAPI212TaskFetchJob9setDueMaxEy@Base 2.0.1
 _ZN6KGAPI212TaskFetchJob9setDueMinEy@Base 2.0.1
 _ZN6KGAPI212TaskFetchJobC1ERK7QStringRK14QSharedPointerINS_7AccountEEP7QObject@Base 2.0.1
 _ZN6KGAPI212TaskFetchJobC1ERK7QStringS3_RK14QSharedPointerINS_7AccountEEP7QObject@Base 2.0.1
 _ZN6KGAPI212TaskFetchJobC2ERK7QStringRK14QSharedPointerINS_7AccountEEP7QObject@Base 2.0.1
 _ZN6KGAPI212TaskFetchJobC2ERK7QStringS3_RK14QSharedPointerINS_7AccountEEP7QObject@Base 2.0.1
 _ZN6KGAPI212TaskFetchJobD0Ev@Base 2.0.1
 _ZN6KGAPI212TaskFetchJobD1Ev@Base 2.0.1
 _ZN6KGAPI212TaskFetchJobD2Ev@Base 2.0.1
 _ZN6KGAPI212TasksService10JSONToTaskERK10QByteArray@Base 2.0.1
 _ZN6KGAPI212TasksService10taskToJSONERK14QSharedPointerINS_4TaskEE@Base 2.0.1
 _ZN6KGAPI212TasksService11moveTaskUrlERK7QStringS3_S3_@Base 2.0.1
 _ZN6KGAPI212TasksService12fetchTaskUrlERK7QStringS3_@Base 2.0.1
 _ZN6KGAPI212TasksService13createTaskUrlERK7QString@Base 2.0.1
 _ZN6KGAPI212TasksService13parseJSONFeedERK10QByteArrayRNS_8FeedDataE@Base 2.0.1
 _ZN6KGAPI212TasksService13removeTaskUrlERK7QStringS3_@Base 2.0.1
 _ZN6KGAPI212TasksService13updateTaskUrlERK7QStringS3_@Base 2.0.1
 _ZN6KGAPI212TasksService14JSONToTaskListERK10QByteArray@Base 2.0.1
 _ZN6KGAPI212TasksService14taskListToJSONERK14QSharedPointerINS_8TaskListEE@Base 2.0.1
 _ZN6KGAPI212TasksService16fetchAllTasksUrlERK7QString@Base 2.0.1
 _ZN6KGAPI212TasksService17createTaskListUrlEv@Base 2.0.1
 _ZN6KGAPI212TasksService17fetchTaskListsUrlEv@Base 2.0.1
 _ZN6KGAPI212TasksService17removeTaskListUrlERK7QString@Base 2.0.1
 _ZN6KGAPI212TasksService17updateTaskListUrlERK7QString@Base 2.0.1
 _ZN6KGAPI213ContactsGroup10setContentERK7QString@Base 2.0.1
 _ZN6KGAPI213ContactsGroup10setUpdatedERK9QDateTime@Base 2.0.1
 _ZN6KGAPI213ContactsGroup16setIsSystemGroupEb@Base 2.0.1
 _ZN6KGAPI213ContactsGroup5setIdERK7QString@Base 2.0.1
 _ZN6KGAPI213ContactsGroup7PrivateC1Ev@Base 2.0.1
 _ZN6KGAPI213ContactsGroup7PrivateC2Ev@Base 2.0.1
 _ZN6KGAPI213ContactsGroup7PrivateD1Ev@Base 2.0.1
 _ZN6KGAPI213ContactsGroup7PrivateD2Ev@Base 2.0.1
 _ZN6KGAPI213ContactsGroup8setTitleERK7QString@Base 2.0.1
 _ZN6KGAPI213ContactsGroupC1ERKS0_@Base 2.0.1
 _ZN6KGAPI213ContactsGroupC1Ev@Base 2.0.1
 _ZN6KGAPI213ContactsGroupC2ERKS0_@Base 2.0.1
 _ZN6KGAPI213ContactsGroupC2Ev@Base 2.0.1
 _ZN6KGAPI213ContactsGroupD0Ev@Base 2.0.1
 _ZN6KGAPI213ContactsGroupD1Ev@Base 2.0.1
 _ZN6KGAPI213ContactsGroupD2Ev@Base 2.0.1
 _ZN6KGAPI213EventFetchJob10setTimeMaxEy@Base 2.0.1
 _ZN6KGAPI213EventFetchJob10setTimeMinEy@Base 2.0.1
 _ZN6KGAPI213EventFetchJob11qt_metacallEN11QMetaObject4CallEiPPv@Base 2.0.1
 _ZN6KGAPI213EventFetchJob11qt_metacastEPKc@Base 2.0.1
 _ZN6KGAPI213EventFetchJob12fetchDeletedEv@Base 2.0.1
 _ZN6KGAPI213EventFetchJob15setFetchDeletedEb@Base 2.0.1
 _ZN6KGAPI213EventFetchJob16fetchOnlyUpdatedEv@Base 2.0.1
 _ZN6KGAPI213EventFetchJob16staticMetaObjectE@Base 2.0.1
 _ZN6KGAPI213EventFetchJob19setFetchOnlyUpdatedEy@Base 2.0.1
 _ZN6KGAPI213EventFetchJob20handleReplyWithItemsEPK13QNetworkReplyRK10QByteArray@Base 2.0.1
 _ZN6KGAPI213EventFetchJob5startEv@Base 2.0.1
 _ZN6KGAPI213EventFetchJob7Private13createRequestERK4QUrl@Base 2.0.1
 _ZN6KGAPI213EventFetchJob7PrivateC1EPS0_@Base 2.0.1
 _ZN6KGAPI213EventFetchJob7PrivateC2EPS0_@Base 2.0.1
 _ZN6KGAPI213EventFetchJob9setFilterERK7QString@Base 2.0.1
 _ZN6KGAPI213EventFetchJobC1ERK7QStringRK14QSharedPointerINS_7AccountEEP7QObject@Base 2.0.1
 _ZN6KGAPI213EventFetchJobC1ERK7QStringS3_RK14QSharedPointerINS_7AccountEEP7QObject@Base 2.0.1
 _ZN6KGAPI213EventFetchJobC2ERK7QStringRK14QSharedPointerINS_7AccountEEP7QObject@Base 2.0.1
 _ZN6KGAPI213EventFetchJobC2ERK7QStringS3_RK14QSharedPointerINS_7AccountEEP7QObject@Base 2.0.1
 _ZN6KGAPI213EventFetchJobD0Ev@Base 2.0.1
 _ZN6KGAPI213EventFetchJobD1Ev@Base 2.0.1
 _ZN6KGAPI213EventFetchJobD2Ev@Base 2.0.1
 _ZN6KGAPI213StaticMapPath12setFillColorERK6QColor@Base 2.0.1
 _ZN6KGAPI213StaticMapPath12setLocationsERK11QStringList@Base 2.0.1
 _ZN6KGAPI213StaticMapPath12setLocationsERK5QListIN4KABC3GeoEE@Base 2.0.1
 _ZN6KGAPI213StaticMapPath12setLocationsERK5QListIN4KABC7AddressEE@Base 2.0.1
 _ZN6KGAPI213StaticMapPath7Private4initERKS1_@Base 2.0.1
 _ZN6KGAPI213StaticMapPath7PrivateC1ERKS1_@Base 2.0.1
 _ZN6KGAPI213StaticMapPath7PrivateC1Ev@Base 2.0.1
 _ZN6KGAPI213StaticMapPath7PrivateC2ERKS1_@Base 2.0.1
 _ZN6KGAPI213StaticMapPath7PrivateC2Ev@Base 2.0.1
 _ZN6KGAPI213StaticMapPath8setColorERK6QColor@Base 2.0.1
 _ZN6KGAPI213StaticMapPath9setWeightEh@Base 2.0.1
 _ZN6KGAPI213StaticMapPathC1ERK11QStringListhRK6QColorS6_@Base 2.0.1
 _ZN6KGAPI213StaticMapPathC1ERK5QListIN4KABC3GeoEEhRK6QColorS9_@Base 2.0.1
 _ZN6KGAPI213StaticMapPathC1ERK5QListIN4KABC7AddressEEhRK6QColorS9_@Base 2.0.1
 _ZN6KGAPI213StaticMapPathC1ERKS0_@Base 2.0.1
 _ZN6KGAPI213StaticMapPathC1Ev@Base 2.0.1
 _ZN6KGAPI213StaticMapPathC2ERK11QStringListhRK6QColorS6_@Base 2.0.1
 _ZN6KGAPI213StaticMapPathC2ERK5QListIN4KABC3GeoEEhRK6QColorS9_@Base 2.0.1
 _ZN6KGAPI213StaticMapPathC2ERK5QListIN4KABC7AddressEEhRK6QColorS9_@Base 2.0.1
 _ZN6KGAPI213StaticMapPathC2ERKS0_@Base 2.0.1
 _ZN6KGAPI213StaticMapPathC2Ev@Base 2.0.1
 _ZN6KGAPI213StaticMapPathD1Ev@Base 2.0.1
 _ZN6KGAPI213StaticMapPathD2Ev@Base 2.0.1
 _ZN6KGAPI213StaticMapPathaSERKS0_@Base 2.0.1
 _ZN6KGAPI213TaskCreateJob11qt_metacallEN11QMetaObject4CallEiPPv@Base 2.0.1
 _ZN6KGAPI213TaskCreateJob11qt_metacastEPKc@Base 2.0.1
 _ZN6KGAPI213TaskCreateJob13setParentItemERK7QString@Base 2.0.1
 _ZN6KGAPI213TaskCreateJob16staticMetaObjectE@Base 2.0.1
 _ZN6KGAPI213TaskCreateJob20handleReplyWithItemsEPK13QNetworkReplyRK10QByteArray@Base 2.0.1
 _ZN6KGAPI213TaskCreateJob5startEv@Base 2.0.1
 _ZN6KGAPI213TaskCreateJobC1ERK14QSharedPointerINS_4TaskEERK7QStringRKS1_INS_7AccountEEP7QObject@Base 2.0.1
 _ZN6KGAPI213TaskCreateJobC1ERK5QListI14QSharedPointerINS_4TaskEEERK7QStringRKS2_INS_7AccountEEP7QObject@Base 2.0.1
 _ZN6KGAPI213TaskCreateJobC2ERK14QSharedPointerINS_4TaskEERK7QStringRKS1_INS_7AccountEEP7QObject@Base 2.0.1
 _ZN6KGAPI213TaskCreateJobC2ERK5QListI14QSharedPointerINS_4TaskEEERK7QStringRKS2_INS_7AccountEEP7QObject@Base 2.0.1
 _ZN6KGAPI213TaskCreateJobD0Ev@Base 2.0.1
 _ZN6KGAPI213TaskCreateJobD1Ev@Base 2.0.1
 _ZN6KGAPI213TaskCreateJobD2Ev@Base 2.0.1
 _ZN6KGAPI213TaskDeleteJob11handleReplyEPK13QNetworkReplyRK10QByteArray@Base 2.0.1
 _ZN6KGAPI213TaskDeleteJob11qt_metacallEN11QMetaObject4CallEiPPv@Base 2.0.1
 _ZN6KGAPI213TaskDeleteJob11qt_metacastEPKc@Base 2.0.1
 _ZN6KGAPI213TaskDeleteJob16staticMetaObjectE@Base 2.0.1
 _ZN6KGAPI213TaskDeleteJob5startEv@Base 2.0.1
 _ZN6KGAPI213TaskDeleteJob7Private15processNextTaskEv@Base 2.0.1
 _ZN6KGAPI213TaskDeleteJob7PrivateC1EPS0_@Base 2.0.1
 _ZN6KGAPI213TaskDeleteJob7PrivateC2EPS0_@Base 2.0.1
 _ZN6KGAPI213TaskDeleteJobC1ERK11QStringListRK7QStringRK14QSharedPointerINS_7AccountEEP7QObject@Base 2.0.1
 _ZN6KGAPI213TaskDeleteJobC1ERK14QSharedPointerINS_4TaskEERK7QStringRKS1_INS_7AccountEEP7QObject@Base 2.0.1
 _ZN6KGAPI213TaskDeleteJobC1ERK5QListI14QSharedPointerINS_4TaskEEERK7QStringRKS2_INS_7AccountEEP7QObject@Base 2.0.1
 _ZN6KGAPI213TaskDeleteJobC1ERK7QStringS3_RK14QSharedPointerINS_7AccountEEP7QObject@Base 2.0.1
 _ZN6KGAPI213TaskDeleteJobC2ERK11QStringListRK7QStringRK14QSharedPointerINS_7AccountEEP7QObject@Base 2.0.1
 _ZN6KGAPI213TaskDeleteJobC2ERK14QSharedPointerINS_4TaskEERK7QStringRKS1_INS_7AccountEEP7QObject@Base 2.0.1
 _ZN6KGAPI213TaskDeleteJobC2ERK5QListI14QSharedPointerINS_4TaskEEERK7QStringRKS2_INS_7AccountEEP7QObject@Base 2.0.1
 _ZN6KGAPI213TaskDeleteJobC2ERK7QStringS3_RK14QSharedPointerINS_7AccountEEP7QObject@Base 2.0.1
 _ZN6KGAPI213TaskDeleteJobD0Ev@Base 2.0.1
 _ZN6KGAPI213TaskDeleteJobD1Ev@Base 2.0.1
 _ZN6KGAPI213TaskDeleteJobD2Ev@Base 2.0.1
 _ZN6KGAPI213TaskModifyJob11qt_metacallEN11QMetaObject4CallEiPPv@Base 2.0.1
 _ZN6KGAPI213TaskModifyJob11qt_metacastEPKc@Base 2.0.1
 _ZN6KGAPI213TaskModifyJob16staticMetaObjectE@Base 2.0.1
 _ZN6KGAPI213TaskModifyJob20handleReplyWithItemsEPK13QNetworkReplyRK10QByteArray@Base 2.0.1
 _ZN6KGAPI213TaskModifyJob5startEv@Base 2.0.1
 _ZN6KGAPI213TaskModifyJobC1ERK14QSharedPointerINS_4TaskEERK7QStringRKS1_INS_7AccountEEP7QObject@Base 2.0.1
 _ZN6KGAPI213TaskModifyJobC1ERK5QListI14QSharedPointerINS_4TaskEEERK7QStringRKS2_INS_7AccountEEP7QObject@Base 2.0.1
 _ZN6KGAPI213TaskModifyJobC2ERK14QSharedPointerINS_4TaskEERK7QStringRKS1_INS_7AccountEEP7QObject@Base 2.0.1
 _ZN6KGAPI213TaskModifyJobC2ERK5QListI14QSharedPointerINS_4TaskEEERK7QStringRKS2_INS_7AccountEEP7QObject@Base 2.0.1
 _ZN6KGAPI213TaskModifyJobD0Ev@Base 2.0.1
 _ZN6KGAPI213TaskModifyJobD1Ev@Base 2.0.1
 _ZN6KGAPI213TaskModifyJobD2Ev@Base 2.0.1
 _ZN6KGAPI214BloggerService12fetchPageUrlERK7QStringS3_@Base 2.1.80
 _ZN6KGAPI214BloggerService12fetchPostUrlERK7QStringS3_@Base 2.1.80
 _ZN6KGAPI214BloggerService13createPageUrlERK7QString@Base 2.1.80
 _ZN6KGAPI214BloggerService13createPostUrlERK7QString@Base 2.1.80
 _ZN6KGAPI214BloggerService13deletePageUrlERK7QStringS3_@Base 2.1.80
 _ZN6KGAPI214BloggerService13deletePostUrlERK7QStringS3_@Base 2.1.80
 _ZN6KGAPI214BloggerService13modifyPageUrlERK7QStringS3_@Base 2.1.80
 _ZN6KGAPI214BloggerService13modifyPostUrlERK7QStringS3_@Base 2.1.80
 _ZN6KGAPI214BloggerService13revertPostUrlERK7QStringS3_@Base 2.1.80
 _ZN6KGAPI214BloggerService13searchPostUrlERK7QString@Base 2.1.80
 _ZN6KGAPI214BloggerService14publishPostUrlERK7QStringS3_@Base 2.1.80
 _ZN6KGAPI214BloggerService16deleteCommentUrlERK7QStringS3_S3_@Base 2.1.80
 _ZN6KGAPI214BloggerService16fetchCommentsUrlERK7QStringS3_S3_@Base 2.1.80
 _ZN6KGAPI214BloggerService17approveCommentUrlERK7QStringS3_S3_@Base 2.1.80
 _ZN6KGAPI214BloggerService20fetchBlogByBlogIdUrlERK7QString@Base 2.1.80
 _ZN6KGAPI214BloggerService20markCommentAsSpamUrlERK7QStringS3_S3_@Base 2.1.80
 _ZN6KGAPI214BloggerService21fetchBlogByBlogUrlUrlERK7QString@Base 2.1.80
 _ZN6KGAPI214BloggerService21fetchBlogsByUserIdUrlERK7QString@Base 2.1.80
 _ZN6KGAPI214BloggerService23deleteCommentContentUrlERK7QStringS3_S3_@Base 2.1.80
 _ZN6KGAPI214EventCreateJob11qt_metacallEN11QMetaObject4CallEiPPv@Base 2.0.1
 _ZN6KGAPI214EventCreateJob11qt_metacastEPKc@Base 2.0.1
 _ZN6KGAPI214EventCreateJob16staticMetaObjectE@Base 2.0.1
 _ZN6KGAPI214EventCreateJob20handleReplyWithItemsEPK13QNetworkReplyRK10QByteArray@Base 2.0.1
 _ZN6KGAPI214EventCreateJob5startEv@Base 2.0.1
 _ZN6KGAPI214EventCreateJobC1ERK14QSharedPointerINS_5EventEERK7QStringRKS1_INS_7AccountEEP7QObject@Base 2.0.1
 _ZN6KGAPI214EventCreateJobC1ERK5QListI14QSharedPointerINS_5EventEEERK7QStringRKS2_INS_7AccountEEP7QObject@Base 2.0.1
 _ZN6KGAPI214EventCreateJobC2ERK14QSharedPointerINS_5EventEERK7QStringRKS1_INS_7AccountEEP7QObject@Base 2.0.1
 _ZN6KGAPI214EventCreateJobC2ERK5QListI14QSharedPointerINS_5EventEEERK7QStringRKS2_INS_7AccountEEP7QObject@Base 2.0.1
 _ZN6KGAPI214EventCreateJobD0Ev@Base 2.0.1
 _ZN6KGAPI214EventCreateJobD1Ev@Base 2.0.1
 _ZN6KGAPI214EventCreateJobD2Ev@Base 2.0.1
 _ZN6KGAPI214EventDeleteJob11handleReplyEPK13QNetworkReplyRK10QByteArray@Base 2.0.1
 _ZN6KGAPI214EventDeleteJob11qt_metacallEN11QMetaObject4CallEiPPv@Base 2.0.1
 _ZN6KGAPI214EventDeleteJob11qt_metacastEPKc@Base 2.0.1
 _ZN6KGAPI214EventDeleteJob16staticMetaObjectE@Base 2.0.1
 _ZN6KGAPI214EventDeleteJob5startEv@Base 2.0.1
 _ZN6KGAPI214EventDeleteJobC1ERK11QStringListRK7QStringRK14QSharedPointerINS_7AccountEEP7QObject@Base 2.0.1
 _ZN6KGAPI214EventDeleteJobC1ERK14QSharedPointerINS_5EventEERK7QStringRKS1_INS_7AccountEEP7QObject@Base 2.0.1
 _ZN6KGAPI214EventDeleteJobC1ERK5QListI14QSharedPointerINS_5EventEEERK7QStringRKS2_INS_7AccountEEP7QObject@Base 2.0.1
 _ZN6KGAPI214EventDeleteJobC1ERK7QStringS3_RK14QSharedPointerINS_7AccountEEP7QObject@Base 2.0.1
 _ZN6KGAPI214EventDeleteJobC2ERK11QStringListRK7QStringRK14QSharedPointerINS_7AccountEEP7QObject@Base 2.0.1
 _ZN6KGAPI214EventDeleteJobC2ERK14QSharedPointerINS_5EventEERK7QStringRKS1_INS_7AccountEEP7QObject@Base 2.0.1
 _ZN6KGAPI214EventDeleteJobC2ERK5QListI14QSharedPointerINS_5EventEEERK7QStringRKS2_INS_7AccountEEP7QObject@Base 2.0.1
 _ZN6KGAPI214EventDeleteJobC2ERK7QStringS3_RK14QSharedPointerINS_7AccountEEP7QObject@Base 2.0.1
 _ZN6KGAPI214EventDeleteJobD0Ev@Base 2.0.1
 _ZN6KGAPI214EventDeleteJobD1Ev@Base 2.0.1
 _ZN6KGAPI214EventDeleteJobD2Ev@Base 2.0.1
 _ZN6KGAPI214EventModifyJob11qt_metacallEN11QMetaObject4CallEiPPv@Base 2.0.1
 _ZN6KGAPI214EventModifyJob11qt_metacastEPKc@Base 2.0.1
 _ZN6KGAPI214EventModifyJob16staticMetaObjectE@Base 2.0.1
 _ZN6KGAPI214EventModifyJob20handleReplyWithItemsEPK13QNetworkReplyRK10QByteArray@Base 2.0.1
 _ZN6KGAPI214EventModifyJob5startEv@Base 2.0.1
 _ZN6KGAPI214EventModifyJobC1ERK14QSharedPointerINS_5EventEERK7QStringRKS1_INS_7AccountEEP7QObject@Base 2.0.1
 _ZN6KGAPI214EventModifyJobC1ERK5QListI14QSharedPointerINS_5EventEEERK7QStringRKS2_INS_7AccountEEP7QObject@Base 2.0.1
 _ZN6KGAPI214EventModifyJobC2ERK14QSharedPointerINS_5EventEERK7QStringRKS1_INS_7AccountEEP7QObject@Base 2.0.1
 _ZN6KGAPI214EventModifyJobC2ERK5QListI14QSharedPointerINS_5EventEEERK7QStringRKS2_INS_7AccountEEP7QObject@Base 2.0.1
 _ZN6KGAPI214EventModifyJobD0Ev@Base 2.0.1
 _ZN6KGAPI214EventModifyJobD1Ev@Base 2.0.1
 _ZN6KGAPI214EventModifyJobD2Ev@Base 2.0.1
 _ZN6KGAPI215CalendarService10APIVersionEv@Base 2.0.1
 _ZN6KGAPI215CalendarService11JSONToEventERK10QByteArray@Base 2.0.1
 _ZN6KGAPI215CalendarService11eventToJSONERK14QSharedPointerINS_5EventEE@Base 2.0.1
 _ZN6KGAPI215CalendarService12moveEventUrlERK7QStringS3_S3_@Base 2.0.1
 _ZN6KGAPI215CalendarService13fetchEventUrlERK7QStringS3_@Base 2.0.1
 _ZN6KGAPI215CalendarService14JSONToCalendarERK10QByteArray@Base 2.0.1
 _ZN6KGAPI215CalendarService14calendarToJSONERK14QSharedPointerINS_8CalendarEE@Base 2.0.1
 _ZN6KGAPI215CalendarService14createEventUrlERK7QString@Base 2.0.1
 _ZN6KGAPI215CalendarService14fetchEventsUrlERK7QString@Base 2.0.1
 _ZN6KGAPI215CalendarService14removeEventUrlERK7QStringS3_@Base 2.0.1
 _ZN6KGAPI215CalendarService14updateEventUrlERK7QStringS3_@Base 2.0.1
 _ZN6KGAPI215CalendarService16fetchCalendarUrlERK7QString@Base 2.0.1
 _ZN6KGAPI215CalendarService17createCalendarUrlEv@Base 2.0.1
 _ZN6KGAPI215CalendarService17fetchCalendarsUrlEv@Base 2.0.1
 _ZN6KGAPI215CalendarService17removeCalendarUrlERK7QString@Base 2.0.1
 _ZN6KGAPI215CalendarService17updateCalendarUrlERK7QString@Base 2.0.1
 _ZN6KGAPI215CalendarService18parseEventJSONFeedERK10QByteArrayRNS_8FeedDataE@Base 2.0.1
 _ZN6KGAPI215CalendarService21parseCalendarJSONFeedERK10QByteArrayRNS_8FeedDataE@Base 2.0.1
 _ZN6KGAPI215ContactFetchJob11qt_metacallEN11QMetaObject4CallEiPPv@Base 2.0.1
 _ZN6KGAPI215ContactFetchJob11qt_metacastEPKc@Base 2.0.1
 _ZN6KGAPI215ContactFetchJob15setFetchDeletedEb@Base 2.0.1
 _ZN6KGAPI215ContactFetchJob16fetchOnlyUpdatedEv@Base 2.0.1
 _ZN6KGAPI215ContactFetchJob16staticMetaObjectE@Base 2.0.1
 _ZN6KGAPI215ContactFetchJob19setFetchOnlyUpdatedEy@Base 2.0.1
 _ZN6KGAPI215ContactFetchJob20handleReplyWithItemsEPK13QNetworkReplyRK10QByteArray@Base 2.0.1
 _ZN6KGAPI215ContactFetchJob5startEv@Base 2.0.1
 _ZN6KGAPI215ContactFetchJob7Private13createRequestERK4QUrl@Base 2.0.1
 _ZN6KGAPI215ContactFetchJob7PrivateC1EPS0_@Base 2.0.1
 _ZN6KGAPI215ContactFetchJob7PrivateC2EPS0_@Base 2.0.1
 _ZN6KGAPI215ContactFetchJob9setFilterERK7QString@Base 2.0.1
 _ZN6KGAPI215ContactFetchJobC1ERK14QSharedPointerINS_7AccountEEP7QObject@Base 2.0.1
 _ZN6KGAPI215ContactFetchJobC1ERK7QStringRK14QSharedPointerINS_7AccountEEP7QObject@Base 2.0.1
 _ZN6KGAPI215ContactFetchJobC2ERK14QSharedPointerINS_7AccountEEP7QObject@Base 2.0.1
 _ZN6KGAPI215ContactFetchJobC2ERK7QStringRK14QSharedPointerINS_7AccountEEP7QObject@Base 2.0.1
 _ZN6KGAPI215ContactFetchJobD0Ev@Base 2.0.1
 _ZN6KGAPI215ContactFetchJobD1Ev@Base 2.0.1
 _ZN6KGAPI215ContactFetchJobD2Ev@Base 2.0.1
 _ZN6KGAPI215ContactsService10APIVersionEv@Base 2.0.1
 _ZN6KGAPI215ContactsService12XMLToContactERK10QByteArray@Base 2.0.1
 _ZN6KGAPI215ContactsService12contactToXMLERK14QSharedPointerINS_7ContactEE@Base 2.0.1
 _ZN6KGAPI215ContactsService13JSONToContactERK10QByteArray@Base 2.0.1
 _ZN6KGAPI215ContactsService13fetchGroupUrlERK7QStringS3_@Base 2.0.1
 _ZN6KGAPI215ContactsService13parseJSONFeedERK10QByteArrayRNS_8FeedDataE@Base 2.0.1
 _ZN6KGAPI215ContactsService14createGroupUrlERK7QString@Base 2.0.1
 _ZN6KGAPI215ContactsService14removeGroupUrlERK7QStringS3_@Base 2.0.1
 _ZN6KGAPI215ContactsService14updateGroupUrlERK7QStringS3_@Base 2.0.1
 _ZN6KGAPI215ContactsService15fetchContactUrlERK7QStringS3_@Base 2.0.1
 _ZN6KGAPI215ContactsService16createContactUrlERK7QString@Base 2.0.1
 _ZN6KGAPI215ContactsService16removeContactUrlERK7QStringS3_@Base 2.0.1
 _ZN6KGAPI215ContactsService16updateContactUrlERK7QStringS3_@Base 2.0.1
 _ZN6KGAPI215ContactsService17fetchAllGroupsUrlERK7QString@Base 2.0.1
 _ZN6KGAPI215ContactsService18XMLToContactsGroupERK10QByteArray@Base 2.0.1
 _ZN6KGAPI215ContactsService18contactsGroupToXMLERK14QSharedPointerINS_13ContactsGroupEE@Base 2.0.1
 _ZN6KGAPI215ContactsService19JSONToContactsGroupERK10QByteArray@Base 2.0.1
 _ZN6KGAPI215ContactsService19fetchAllContactsUrlERK7QStringRKb@Base 2.0.1
 _ZN6KGAPI215ContactsService8photoUrlERK7QStringS3_@Base 2.0.1
 _ZN6KGAPI215LatitudeService10APIVersionEv@Base 2.0.1
 _ZN6KGAPI215LatitudeService14JSONToLocationERK10QByteArray@Base 2.0.1
 _ZN6KGAPI215LatitudeService14locationToJSONERK14QSharedPointerINS_8LocationEE@Base 2.0.1
 _ZN6KGAPI215LatitudeService17deleteLocationUrlEx@Base 2.0.1
 _ZN6KGAPI215LatitudeService17insertLocationUrlEv@Base 2.0.1
 _ZN6KGAPI215LatitudeService18locationHistoryUrlENS_8Latitude11GranularityEixx@Base 2.0.1
 _ZN6KGAPI215LatitudeService19retrieveLocationUrlExNS_8Latitude11GranularityE@Base 2.0.1
 _ZN6KGAPI215LatitudeService21parseLocationJSONFeedERK10QByteArrayRNS_8FeedDataE@Base 2.0.1
 _ZN6KGAPI215LatitudeService24deleteCurrentLocationUrlEv@Base 2.0.1
 _ZN6KGAPI215LatitudeService24insertCurrentLocationUrlEv@Base 2.0.1
 _ZN6KGAPI215LatitudeService26retrieveCurrentLocationUrlENS_8Latitude11GranularityE@Base 2.0.1
 _ZN6KGAPI215StaticMapMarker11setLocationERK7QString@Base 2.0.1
 _ZN6KGAPI215StaticMapMarker11setLocationERKN4KABC3GeoE@Base 2.0.1
 _ZN6KGAPI215StaticMapMarker11setLocationERKN4KABC7AddressE@Base 2.0.1
 _ZN6KGAPI215StaticMapMarker12setLocationsERK11QStringList@Base 2.0.1
 _ZN6KGAPI215StaticMapMarker12setLocationsERK5QListIN4KABC3GeoEE@Base 2.0.1
 _ZN6KGAPI215StaticMapMarker12setLocationsERK5QListIN4KABC7AddressEE@Base 2.0.1
 _ZN6KGAPI215StaticMapMarker7Private4initERKS1_@Base 2.0.1
 _ZN6KGAPI215StaticMapMarker7PrivateC1ERKS1_@Base 2.0.1
 _ZN6KGAPI215StaticMapMarker7PrivateC1Ev@Base 2.0.1
 _ZN6KGAPI215StaticMapMarker7PrivateC2ERKS1_@Base 2.0.1
 _ZN6KGAPI215StaticMapMarker7PrivateC2Ev@Base 2.0.1
 _ZN6KGAPI215StaticMapMarker7setSizeENS0_10MarkerSizeE@Base 2.0.1
 _ZN6KGAPI215StaticMapMarker8setColorERK6QColor@Base 2.0.1
 _ZN6KGAPI215StaticMapMarker8setLabelERK5QChar@Base 2.0.1
 _ZN6KGAPI215StaticMapMarkerC1ERK11QStringListRK5QCharNS0_10MarkerSizeERK6QColor@Base 2.0.1
 _ZN6KGAPI215StaticMapMarkerC1ERK5QListIN4KABC3GeoEERK5QCharNS0_10MarkerSizeERK6QColor@Base 2.0.1
 _ZN6KGAPI215StaticMapMarkerC1ERK5QListIN4KABC7AddressEERK5QCharNS0_10MarkerSizeERK6QColor@Base 2.0.1
 _ZN6KGAPI215StaticMapMarkerC1ERK7QStringRK5QCharNS0_10MarkerSizeERK6QColor@Base 2.0.1
 _ZN6KGAPI215StaticMapMarkerC1ERKN4KABC3GeoERK5QCharNS0_10MarkerSizeERK6QColor@Base 2.0.1
 _ZN6KGAPI215StaticMapMarkerC1ERKN4KABC7AddressERK5QCharNS0_10MarkerSizeERK6QColor@Base 2.0.1
 _ZN6KGAPI215StaticMapMarkerC1ERKS0_@Base 2.0.1
 _ZN6KGAPI215StaticMapMarkerC1Ev@Base 2.0.1
 _ZN6KGAPI215StaticMapMarkerC2ERK11QStringListRK5QCharNS0_10MarkerSizeERK6QColor@Base 2.0.1
 _ZN6KGAPI215StaticMapMarkerC2ERK5QListIN4KABC3GeoEERK5QCharNS0_10MarkerSizeERK6QColor@Base 2.0.1
 _ZN6KGAPI215StaticMapMarkerC2ERK5QListIN4KABC7AddressEERK5QCharNS0_10MarkerSizeERK6QColor@Base 2.0.1
 _ZN6KGAPI215StaticMapMarkerC2ERK7QStringRK5QCharNS0_10MarkerSizeERK6QColor@Base 2.0.1
 _ZN6KGAPI215StaticMapMarkerC2ERKN4KABC3GeoERK5QCharNS0_10MarkerSizeERK6QColor@Base 2.0.1
 _ZN6KGAPI215StaticMapMarkerC2ERKN4KABC7AddressERK5QCharNS0_10MarkerSizeERK6QColor@Base 2.0.1
 _ZN6KGAPI215StaticMapMarkerC2ERKS0_@Base 2.0.1
 _ZN6KGAPI215StaticMapMarkerC2Ev@Base 2.0.1
 _ZN6KGAPI215StaticMapMarkerD1Ev@Base 2.0.1
 _ZN6KGAPI215StaticMapMarkerD2Ev@Base 2.0.1
 _ZN6KGAPI215StaticMapMarkeraSERKS0_@Base 2.0.1
 _ZN6KGAPI216CalendarFetchJob11qt_metacallEN11QMetaObject4CallEiPPv@Base 2.0.1
 _ZN6KGAPI216CalendarFetchJob11qt_metacastEPKc@Base 2.0.1
 _ZN6KGAPI216CalendarFetchJob16staticMetaObjectE@Base 2.0.1
 _ZN6KGAPI216CalendarFetchJob20handleReplyWithItemsEPK13QNetworkReplyRK10QByteArray@Base 2.0.1
 _ZN6KGAPI216CalendarFetchJob5startEv@Base 2.0.1
 _ZN6KGAPI216CalendarFetchJob7Private13createRequestERK4QUrl@Base 2.0.1
 _ZN6KGAPI216CalendarFetchJob7PrivateC1EPS0_@Base 2.0.1
 _ZN6KGAPI216CalendarFetchJob7PrivateC2EPS0_@Base 2.0.1
 _ZN6KGAPI216CalendarFetchJobC1ERK14QSharedPointerINS_7AccountEEP7QObject@Base 2.0.1
 _ZN6KGAPI216CalendarFetchJobC1ERK7QStringRK14QSharedPointerINS_7AccountEEP7QObject@Base 2.0.1
 _ZN6KGAPI216CalendarFetchJobC2ERK14QSharedPointerINS_7AccountEEP7QObject@Base 2.0.1
 _ZN6KGAPI216CalendarFetchJobC2ERK7QStringRK14QSharedPointerINS_7AccountEEP7QObject@Base 2.0.1
 _ZN6KGAPI216CalendarFetchJobD0Ev@Base 2.0.1
 _ZN6KGAPI216CalendarFetchJobD1Ev@Base 2.0.1
 _ZN6KGAPI216CalendarFetchJobD2Ev@Base 2.0.1
 _ZN6KGAPI216ContactCreateJob11qt_metacallEN11QMetaObject4CallEiPPv@Base 2.0.1
 _ZN6KGAPI216ContactCreateJob11qt_metacastEPKc@Base 2.0.1
 _ZN6KGAPI216ContactCreateJob15dispatchRequestEP21QNetworkAccessManagerRK15QNetworkRequestRK10QByteArrayRK7QString@Base 2.0.1
 _ZN6KGAPI216ContactCreateJob16staticMetaObjectE@Base 2.0.1
 _ZN6KGAPI216ContactCreateJob20handleReplyWithItemsEPK13QNetworkReplyRK10QByteArray@Base 2.0.1
 _ZN6KGAPI216ContactCreateJob5startEv@Base 2.0.1
 _ZN6KGAPI216ContactCreateJob7Private18processNextContactEv@Base 2.0.1
 _ZN6KGAPI216ContactCreateJob7PrivateC1EPS0_@Base 2.0.1
 _ZN6KGAPI216ContactCreateJob7PrivateC2EPS0_@Base 2.0.1
 _ZN6KGAPI216ContactCreateJobC1ERK14QSharedPointerINS_7ContactEERKS1_INS_7AccountEEP7QObject@Base 2.0.1
 _ZN6KGAPI216ContactCreateJobC1ERK5QListI14QSharedPointerINS_7ContactEEERKS2_INS_7AccountEEP7QObject@Base 2.0.1
 _ZN6KGAPI216ContactCreateJobC2ERK14QSharedPointerINS_7ContactEERKS1_INS_7AccountEEP7QObject@Base 2.0.1
 _ZN6KGAPI216ContactCreateJobC2ERK5QListI14QSharedPointerINS_7ContactEEERKS2_INS_7AccountEEP7QObject@Base 2.0.1
 _ZN6KGAPI216ContactCreateJobD0Ev@Base 2.0.1
 _ZN6KGAPI216ContactCreateJobD1Ev@Base 2.0.1
 _ZN6KGAPI216ContactCreateJobD2Ev@Base 2.0.1
 _ZN6KGAPI216ContactDeleteJob11handleReplyEPK13QNetworkReplyRK10QByteArray@Base 2.0.1
 _ZN6KGAPI216ContactDeleteJob11qt_metacallEN11QMetaObject4CallEiPPv@Base 2.0.1
 _ZN6KGAPI216ContactDeleteJob11qt_metacastEPKc@Base 2.0.1
 _ZN6KGAPI216ContactDeleteJob16staticMetaObjectE@Base 2.0.1
 _ZN6KGAPI216ContactDeleteJob5startEv@Base 2.0.1
 _ZN6KGAPI216ContactDeleteJob7Private18processNextContactEv@Base 2.0.1
 _ZN6KGAPI216ContactDeleteJob7PrivateC1EPS0_@Base 2.0.1
 _ZN6KGAPI216ContactDeleteJob7PrivateC2EPS0_@Base 2.0.1
 _ZN6KGAPI216ContactDeleteJobC1E11QStringListRK14QSharedPointerINS_7AccountEEP7QObject@Base 2.0.1
 _ZN6KGAPI216ContactDeleteJobC1ERK14QSharedPointerINS_7ContactEERKS1_INS_7AccountEEP7QObject@Base 2.0.1
 _ZN6KGAPI216ContactDeleteJobC1ERK5QListI14QSharedPointerINS_7ContactEEERKS2_INS_7AccountEEP7QObject@Base 2.0.1
 _ZN6KGAPI216ContactDeleteJobC1ERK7QStringRK14QSharedPointerINS_7AccountEEP7QObject@Base 2.0.1
 _ZN6KGAPI216ContactDeleteJobC2E11QStringListRK14QSharedPointerINS_7AccountEEP7QObject@Base 2.0.1
 _ZN6KGAPI216ContactDeleteJobC2ERK14QSharedPointerINS_7ContactEERKS1_INS_7AccountEEP7QObject@Base 2.0.1
 _ZN6KGAPI216ContactDeleteJobC2ERK5QListI14QSharedPointerINS_7ContactEEERKS2_INS_7AccountEEP7QObject@Base 2.0.1
 _ZN6KGAPI216ContactDeleteJobC2ERK7QStringRK14QSharedPointerINS_7AccountEEP7QObject@Base 2.0.1
 _ZN6KGAPI216ContactDeleteJobD0Ev@Base 2.0.1
 _ZN6KGAPI216ContactDeleteJobD1Ev@Base 2.0.1
 _ZN6KGAPI216ContactDeleteJobD2Ev@Base 2.0.1
 _ZN6KGAPI216ContactModifyJob11qt_metacallEN11QMetaObject4CallEiPPv@Base 2.0.1
 _ZN6KGAPI216ContactModifyJob11qt_metacastEPKc@Base 2.0.1
 _ZN6KGAPI216ContactModifyJob15dispatchRequestEP21QNetworkAccessManagerRK15QNetworkRequestRK10QByteArrayRK7QString@Base 2.0.1
 _ZN6KGAPI216ContactModifyJob16staticMetaObjectE@Base 2.0.1
 _ZN6KGAPI216ContactModifyJob20handleReplyWithItemsEPK13QNetworkReplyRK10QByteArray@Base 2.0.1
 _ZN6KGAPI216ContactModifyJob5startEv@Base 2.0.1
 _ZN6KGAPI216ContactModifyJob7Private18processNextContactEv@Base 2.0.1
 _ZN6KGAPI216ContactModifyJob7PrivateC1EPS0_@Base 2.0.1
 _ZN6KGAPI216ContactModifyJob7PrivateC2EPS0_@Base 2.0.1
 _ZN6KGAPI216ContactModifyJobC1ERK14QSharedPointerINS_7ContactEERKS1_INS_7AccountEEP7QObject@Base 2.0.1
 _ZN6KGAPI216ContactModifyJobC1ERK5QListI14QSharedPointerINS_7ContactEEERKS2_INS_7AccountEEP7QObject@Base 2.0.1
 _ZN6KGAPI216ContactModifyJobC2ERK14QSharedPointerINS_7ContactEERKS1_INS_7AccountEEP7QObject@Base 2.0.1
 _ZN6KGAPI216ContactModifyJobC2ERK5QListI14QSharedPointerINS_7ContactEEERKS2_INS_7AccountEEP7QObject@Base 2.0.1
 _ZN6KGAPI216ContactModifyJobD0Ev@Base 2.0.1
 _ZN6KGAPI216ContactModifyJobD1Ev@Base 2.0.1
 _ZN6KGAPI216ContactModifyJobD2Ev@Base 2.0.1
 _ZN6KGAPI216LocationFetchJob11qt_metacallEN11QMetaObject4CallEiPPv@Base 2.0.1
 _ZN6KGAPI216LocationFetchJob11qt_metacastEPKc@Base 2.0.1
 _ZN6KGAPI216LocationFetchJob14setGranularityENS_8Latitude11GranularityE@Base 2.0.1
 _ZN6KGAPI216LocationFetchJob16staticMetaObjectE@Base 2.0.1
 _ZN6KGAPI216LocationFetchJob20handleReplyWithItemsEPK13QNetworkReplyRK10QByteArray@Base 2.0.1
 _ZN6KGAPI216LocationFetchJob5startEv@Base 2.0.1
 _ZN6KGAPI216LocationFetchJob7PrivateC1Ev@Base 2.0.1
 _ZN6KGAPI216LocationFetchJob7PrivateC2Ev@Base 2.0.1
 _ZN6KGAPI216LocationFetchJobC1ERK14QSharedPointerINS_7AccountEEP7QObject@Base 2.0.1
 _ZN6KGAPI216LocationFetchJobC1ExRK14QSharedPointerINS_7AccountEEP7QObject@Base 2.0.1
 _ZN6KGAPI216LocationFetchJobC2ERK14QSharedPointerINS_7AccountEEP7QObject@Base 2.0.1
 _ZN6KGAPI216LocationFetchJobC2ExRK14QSharedPointerINS_7AccountEEP7QObject@Base 2.0.1
 _ZN6KGAPI216LocationFetchJobD0Ev@Base 2.0.1
 _ZN6KGAPI216LocationFetchJobD1Ev@Base 2.0.1
 _ZN6KGAPI216LocationFetchJobD2Ev@Base 2.0.1
 _ZN6KGAPI216TaskListFetchJob11qt_metacallEN11QMetaObject4CallEiPPv@Base 2.0.1
 _ZN6KGAPI216TaskListFetchJob11qt_metacastEPKc@Base 2.0.1
 _ZN6KGAPI216TaskListFetchJob16staticMetaObjectE@Base 2.0.1
 _ZN6KGAPI216TaskListFetchJob20handleReplyWithItemsEPK13QNetworkReplyRK10QByteArray@Base 2.0.1
 _ZN6KGAPI216TaskListFetchJob5startEv@Base 2.0.1
 _ZN6KGAPI216TaskListFetchJob7Private13createRequestERK4QUrl@Base 2.0.1
 _ZN6KGAPI216TaskListFetchJob7PrivateC1EPS0_@Base 2.0.1
 _ZN6KGAPI216TaskListFetchJob7PrivateC2EPS0_@Base 2.0.1
 _ZN6KGAPI216TaskListFetchJobC1ERK14QSharedPointerINS_7AccountEEP7QObject@Base 2.0.1
 _ZN6KGAPI216TaskListFetchJobC2ERK14QSharedPointerINS_7AccountEEP7QObject@Base 2.0.1
 _ZN6KGAPI216TaskListFetchJobD0Ev@Base 2.0.1
 _ZN6KGAPI216TaskListFetchJobD1Ev@Base 2.0.1
 _ZN6KGAPI216TaskListFetchJobD2Ev@Base 2.0.1
 _ZN6KGAPI217CalendarCreateJob11qt_metacallEN11QMetaObject4CallEiPPv@Base 2.0.1
 _ZN6KGAPI217CalendarCreateJob11qt_metacastEPKc@Base 2.0.1
 _ZN6KGAPI217CalendarCreateJob16staticMetaObjectE@Base 2.0.1
 _ZN6KGAPI217CalendarCreateJob20handleReplyWithItemsEPK13QNetworkReplyRK10QByteArray@Base 2.0.1
 _ZN6KGAPI217CalendarCreateJob5startEv@Base 2.0.1
 _ZN6KGAPI217CalendarCreateJobC1ERK14QSharedPointerINS_8CalendarEERKS1_INS_7AccountEEP7QObject@Base 2.0.1
 _ZN6KGAPI217CalendarCreateJobC1ERK5QListI14QSharedPointerINS_8CalendarEEERKS2_INS_7AccountEEP7QObject@Base 2.0.1
 _ZN6KGAPI217CalendarCreateJobC2ERK14QSharedPointerINS_8CalendarEERKS1_INS_7AccountEEP7QObject@Base 2.0.1
 _ZN6KGAPI217CalendarCreateJobC2ERK5QListI14QSharedPointerINS_8CalendarEEERKS2_INS_7AccountEEP7QObject@Base 2.0.1
 _ZN6KGAPI217CalendarCreateJobD0Ev@Base 2.0.1
 _ZN6KGAPI217CalendarCreateJobD1Ev@Base 2.0.1
 _ZN6KGAPI217CalendarCreateJobD2Ev@Base 2.0.1
 _ZN6KGAPI217CalendarDeleteJob11handleReplyEPK13QNetworkReplyRK10QByteArray@Base 2.0.1
 _ZN6KGAPI217CalendarDeleteJob11qt_metacallEN11QMetaObject4CallEiPPv@Base 2.0.1
 _ZN6KGAPI217CalendarDeleteJob11qt_metacastEPKc@Base 2.0.1
 _ZN6KGAPI217CalendarDeleteJob16staticMetaObjectE@Base 2.0.1
 _ZN6KGAPI217CalendarDeleteJob5startEv@Base 2.0.1
 _ZN6KGAPI217CalendarDeleteJobC1ERK11QStringListRK14QSharedPointerINS_7AccountEEP7QObject@Base 2.0.1
 _ZN6KGAPI217CalendarDeleteJobC1ERK14QSharedPointerINS_8CalendarEERKS1_INS_7AccountEEP7QObject@Base 2.0.1
 _ZN6KGAPI217CalendarDeleteJobC1ERK5QListI14QSharedPointerINS_8CalendarEEERKS2_INS_7AccountEEP7QObject@Base 2.0.1
 _ZN6KGAPI217CalendarDeleteJobC1ERK7QStringRK14QSharedPointerINS_7AccountEEP7QObject@Base 2.0.1
 _ZN6KGAPI217CalendarDeleteJobC2ERK11QStringListRK14QSharedPointerINS_7AccountEEP7QObject@Base 2.0.1
 _ZN6KGAPI217CalendarDeleteJobC2ERK14QSharedPointerINS_8CalendarEERKS1_INS_7AccountEEP7QObject@Base 2.0.1
 _ZN6KGAPI217CalendarDeleteJobC2ERK5QListI14QSharedPointerINS_8CalendarEEERKS2_INS_7AccountEEP7QObject@Base 2.0.1
 _ZN6KGAPI217CalendarDeleteJobC2ERK7QStringRK14QSharedPointerINS_7AccountEEP7QObject@Base 2.0.1
 _ZN6KGAPI217CalendarDeleteJobD0Ev@Base 2.0.1
 _ZN6KGAPI217CalendarDeleteJobD1Ev@Base 2.0.1
 _ZN6KGAPI217CalendarDeleteJobD2Ev@Base 2.0.1
 _ZN6KGAPI217CalendarModifyJob11qt_metacallEN11QMetaObject4CallEiPPv@Base 2.0.1
 _ZN6KGAPI217CalendarModifyJob11qt_metacastEPKc@Base 2.0.1
 _ZN6KGAPI217CalendarModifyJob16staticMetaObjectE@Base 2.0.1
 _ZN6KGAPI217CalendarModifyJob20handleReplyWithItemsEPK13QNetworkReplyRK10QByteArray@Base 2.0.1
 _ZN6KGAPI217CalendarModifyJob5startEv@Base 2.0.1
 _ZN6KGAPI217CalendarModifyJobC1ERK14QSharedPointerINS_8CalendarEERKS1_INS_7AccountEEP7QObject@Base 2.0.1
 _ZN6KGAPI217CalendarModifyJobC1ERK5QListI14QSharedPointerINS_8CalendarEEERKS2_INS_7AccountEEP7QObject@Base 2.0.1
 _ZN6KGAPI217CalendarModifyJobC2ERK14QSharedPointerINS_8CalendarEERKS1_INS_7AccountEEP7QObject@Base 2.0.1
 _ZN6KGAPI217CalendarModifyJobC2ERK5QListI14QSharedPointerINS_8CalendarEEERKS2_INS_7AccountEEP7QObject@Base 2.0.1
 _ZN6KGAPI217CalendarModifyJobD0Ev@Base 2.0.1
 _ZN6KGAPI217CalendarModifyJobD1Ev@Base 2.0.1
 _ZN6KGAPI217CalendarModifyJobD2Ev@Base 2.0.1
 _ZN6KGAPI217LocationCreateJob11qt_metacallEN11QMetaObject4CallEiPPv@Base 2.0.1
 _ZN6KGAPI217LocationCreateJob11qt_metacastEPKc@Base 2.0.1
 _ZN6KGAPI217LocationCreateJob16staticMetaObjectE@Base 2.0.1
 _ZN6KGAPI217LocationCreateJob20handleReplyWithItemsEPK13QNetworkReplyRK10QByteArray@Base 2.0.1
 _ZN6KGAPI217LocationCreateJob5startEv@Base 2.0.1
 _ZN6KGAPI217LocationCreateJob7PrivateC1Ev@Base 2.0.1
 _ZN6KGAPI217LocationCreateJob7PrivateC2Ev@Base 2.0.1
 _ZN6KGAPI217LocationCreateJobC1ERK14QSharedPointerINS_8LocationEEbRKS1_INS_7AccountEEP7QObject@Base 2.0.1
 _ZN6KGAPI217LocationCreateJobC2ERK14QSharedPointerINS_8LocationEEbRKS1_INS_7AccountEEP7QObject@Base 2.0.1
 _ZN6KGAPI217LocationCreateJobD0Ev@Base 2.0.1
 _ZN6KGAPI217LocationCreateJobD1Ev@Base 2.0.1
 _ZN6KGAPI217LocationCreateJobD2Ev@Base 2.0.1
 _ZN6KGAPI217LocationDeleteJob11qt_metacallEN11QMetaObject4CallEiPPv@Base 2.0.1
 _ZN6KGAPI217LocationDeleteJob11qt_metacastEPKc@Base 2.0.1
 _ZN6KGAPI217LocationDeleteJob16staticMetaObjectE@Base 2.0.1
 _ZN6KGAPI217LocationDeleteJob5startEv@Base 2.0.1
 _ZN6KGAPI217LocationDeleteJob7PrivateC1Ev@Base 2.0.1
 _ZN6KGAPI217LocationDeleteJob7PrivateC2Ev@Base 2.0.1
 _ZN6KGAPI217LocationDeleteJobC1ERK14QSharedPointerINS_7AccountEEP7QObject@Base 2.0.1
 _ZN6KGAPI217LocationDeleteJobC1ERK14QSharedPointerINS_8LocationEERKS1_INS_7AccountEEP7QObject@Base 2.0.1
 _ZN6KGAPI217LocationDeleteJobC1EyRK14QSharedPointerINS_7AccountEEP7QObject@Base 2.0.1
 _ZN6KGAPI217LocationDeleteJobC2ERK14QSharedPointerINS_7AccountEEP7QObject@Base 2.0.1
 _ZN6KGAPI217LocationDeleteJobC2ERK14QSharedPointerINS_8LocationEERKS1_INS_7AccountEEP7QObject@Base 2.0.1
 _ZN6KGAPI217LocationDeleteJobC2EyRK14QSharedPointerINS_7AccountEEP7QObject@Base 2.0.1
 _ZN6KGAPI217LocationDeleteJobD0Ev@Base 2.0.1
 _ZN6KGAPI217LocationDeleteJobD1Ev@Base 2.0.1
 _ZN6KGAPI217LocationDeleteJobD2Ev@Base 2.0.1
 _ZN6KGAPI217NewTokensFetchJob11handleReplyEPK13QNetworkReplyRK10QByteArray@Base 2.0.1
 _ZN6KGAPI217NewTokensFetchJob11qt_metacallEN11QMetaObject4CallEiPPv@Base 2.0.1
 _ZN6KGAPI217NewTokensFetchJob11qt_metacastEPKc@Base 2.0.1
 _ZN6KGAPI217NewTokensFetchJob15dispatchRequestEP21QNetworkAccessManagerRK15QNetworkRequestRK10QByteArrayRK7QString@Base 2.0.1
 _ZN6KGAPI217NewTokensFetchJob16staticMetaObjectE@Base 2.0.1
 _ZN6KGAPI217NewTokensFetchJob5startEv@Base 2.0.1
 _ZN6KGAPI217NewTokensFetchJobC1ERK7QStringS3_S3_P7QObject@Base 2.0.1
 _ZN6KGAPI217NewTokensFetchJobC2ERK7QStringS3_S3_P7QObject@Base 2.0.1
 _ZN6KGAPI217NewTokensFetchJobD0Ev@Base 2.0.1
 _ZN6KGAPI217NewTokensFetchJobD1Ev@Base 2.0.1
 _ZN6KGAPI217NewTokensFetchJobD2Ev@Base 2.0.1
 _ZN6KGAPI217TaskListCreateJob11qt_metacallEN11QMetaObject4CallEiPPv@Base 2.0.1
 _ZN6KGAPI217TaskListCreateJob11qt_metacastEPKc@Base 2.0.1
 _ZN6KGAPI217TaskListCreateJob16staticMetaObjectE@Base 2.0.1
 _ZN6KGAPI217TaskListCreateJob20handleReplyWithItemsEPK13QNetworkReplyRK10QByteArray@Base 2.0.1
 _ZN6KGAPI217TaskListCreateJob5startEv@Base 2.0.1
 _ZN6KGAPI217TaskListCreateJobC1ERK14QSharedPointerINS_8TaskListEERKS1_INS_7AccountEEP7QObject@Base 2.0.1
 _ZN6KGAPI217TaskListCreateJobC1ERK5QListI14QSharedPointerINS_8TaskListEEERKS2_INS_7AccountEEP7QObject@Base 2.0.1
 _ZN6KGAPI217TaskListCreateJobC2ERK14QSharedPointerINS_8TaskListEERKS1_INS_7AccountEEP7QObject@Base 2.0.1
 _ZN6KGAPI217TaskListCreateJobC2ERK5QListI14QSharedPointerINS_8TaskListEEERKS2_INS_7AccountEEP7QObject@Base 2.0.1
 _ZN6KGAPI217TaskListCreateJobD0Ev@Base 2.0.1
 _ZN6KGAPI217TaskListCreateJobD1Ev@Base 2.0.1
 _ZN6KGAPI217TaskListCreateJobD2Ev@Base 2.0.1
 _ZN6KGAPI217TaskListDeleteJob11handleReplyEPK13QNetworkReplyRK10QByteArray@Base 2.0.1
 _ZN6KGAPI217TaskListDeleteJob11qt_metacallEN11QMetaObject4CallEiPPv@Base 2.0.1
 _ZN6KGAPI217TaskListDeleteJob11qt_metacastEPKc@Base 2.0.1
 _ZN6KGAPI217TaskListDeleteJob16staticMetaObjectE@Base 2.0.1
 _ZN6KGAPI217TaskListDeleteJob5startEv@Base 2.0.1
 _ZN6KGAPI217TaskListDeleteJob7Private19processNextTaskListEv@Base 2.0.1
 _ZN6KGAPI217TaskListDeleteJob7PrivateC1EPS0_@Base 2.0.1
 _ZN6KGAPI217TaskListDeleteJob7PrivateC2EPS0_@Base 2.0.1
 _ZN6KGAPI217TaskListDeleteJobC1ERK11QStringListRK14QSharedPointerINS_7AccountEEP7QObject@Base 2.0.1
 _ZN6KGAPI217TaskListDeleteJobC1ERK14QSharedPointerINS_8TaskListEERKS1_INS_7AccountEEP7QObject@Base 2.0.1
 _ZN6KGAPI217TaskListDeleteJobC1ERK5QListI14QSharedPointerINS_8TaskListEEERKS2_INS_7AccountEEP7QObject@Base 2.0.1
 _ZN6KGAPI217TaskListDeleteJobC1ERK7QStringRK14QSharedPointerINS_7AccountEEP7QObject@Base 2.0.1
 _ZN6KGAPI217TaskListDeleteJobC2ERK11QStringListRK14QSharedPointerINS_7AccountEEP7QObject@Base 2.0.1
 _ZN6KGAPI217TaskListDeleteJobC2ERK14QSharedPointerINS_8TaskListEERKS1_INS_7AccountEEP7QObject@Base 2.0.1
 _ZN6KGAPI217TaskListDeleteJobC2ERK5QListI14QSharedPointerINS_8TaskListEEERKS2_INS_7AccountEEP7QObject@Base 2.0.1
 _ZN6KGAPI217TaskListDeleteJobC2ERK7QStringRK14QSharedPointerINS_7AccountEEP7QObject@Base 2.0.1
 _ZN6KGAPI217TaskListDeleteJobD0Ev@Base 2.0.1
 _ZN6KGAPI217TaskListDeleteJobD1Ev@Base 2.0.1
 _ZN6KGAPI217TaskListDeleteJobD2Ev@Base 2.0.1
 _ZN6KGAPI217TaskListModifyJob11qt_metacallEN11QMetaObject4CallEiPPv@Base 2.0.1
 _ZN6KGAPI217TaskListModifyJob11qt_metacastEPKc@Base 2.0.1
 _ZN6KGAPI217TaskListModifyJob16staticMetaObjectE@Base 2.0.1
 _ZN6KGAPI217TaskListModifyJob20handleReplyWithItemsEPK13QNetworkReplyRK10QByteArray@Base 2.0.1
 _ZN6KGAPI217TaskListModifyJob5startEv@Base 2.0.1
 _ZN6KGAPI217TaskListModifyJobC1ERK14QSharedPointerINS_8TaskListEERKS1_INS_7AccountEEP7QObject@Base 2.0.1
 _ZN6KGAPI217TaskListModifyJobC1ERK5QListI14QSharedPointerINS_8TaskListEEERKS2_INS_7AccountEEP7QObject@Base 2.0.1
 _ZN6KGAPI217TaskListModifyJobC2ERK14QSharedPointerINS_8TaskListEERKS1_INS_7AccountEEP7QObject@Base 2.0.1
 _ZN6KGAPI217TaskListModifyJobC2ERK5QListI14QSharedPointerINS_8TaskListEEERKS2_INS_7AccountEEP7QObject@Base 2.0.1
 _ZN6KGAPI217TaskListModifyJobD0Ev@Base 2.0.1
 _ZN6KGAPI217TaskListModifyJobD1Ev@Base 2.0.1
 _ZN6KGAPI217TaskListModifyJobD2Ev@Base 2.0.1
 _ZN6KGAPI219AccountInfoFetchJob11qt_metacallEN11QMetaObject4CallEiPPv@Base 2.0.1
 _ZN6KGAPI219AccountInfoFetchJob11qt_metacastEPKc@Base 2.0.1
 _ZN6KGAPI219AccountInfoFetchJob16staticMetaObjectE@Base 2.0.1
 _ZN6KGAPI219AccountInfoFetchJob20handleReplyWithItemsEPK13QNetworkReplyRK10QByteArray@Base 2.0.1
 _ZN6KGAPI219AccountInfoFetchJob5startEv@Base 2.0.1
 _ZN6KGAPI219AccountInfoFetchJobC1ERK14QSharedPointerINS_7AccountEEP7QObject@Base 2.0.1
 _ZN6KGAPI219AccountInfoFetchJobC2ERK14QSharedPointerINS_7AccountEEP7QObject@Base 2.0.1
 _ZN6KGAPI219AccountInfoFetchJobD0Ev@Base 2.0.1
 _ZN6KGAPI219AccountInfoFetchJobD1Ev@Base 2.0.1
 _ZN6KGAPI219AccountInfoFetchJobD2Ev@Base 2.0.1
 _ZN6KGAPI220ContactFetchPhotoJob11handleReplyEPK13QNetworkReplyRK10QByteArray@Base 2.0.1
 _ZN6KGAPI220ContactFetchPhotoJob11qt_metacallEN11QMetaObject4CallEiPPv@Base 2.0.1
 _ZN6KGAPI220ContactFetchPhotoJob11qt_metacastEPKc@Base 2.0.1
 _ZN6KGAPI220ContactFetchPhotoJob12photoFetchedEPNS_3JobERK14QSharedPointerINS_7ContactEE@Base 2.0.1
 _ZN6KGAPI220ContactFetchPhotoJob16staticMetaObjectE@Base 2.0.1
 _ZN6KGAPI220ContactFetchPhotoJob5startEv@Base 2.0.1
 _ZN6KGAPI220ContactFetchPhotoJob7Private18processNextContactEv@Base 2.0.1
 _ZN6KGAPI220ContactFetchPhotoJob7PrivateC1EPS0_@Base 2.0.1
 _ZN6KGAPI220ContactFetchPhotoJob7PrivateC2EPS0_@Base 2.0.1
 _ZN6KGAPI220ContactFetchPhotoJobC1ERK14QSharedPointerINS_7ContactEERKS1_INS_7AccountEEP7QObject@Base 2.0.1
 _ZN6KGAPI220ContactFetchPhotoJobC1ERK5QListI14QSharedPointerINS_7ContactEEERKS2_INS_7AccountEEP7QObject@Base 2.0.1
 _ZN6KGAPI220ContactFetchPhotoJobC2ERK14QSharedPointerINS_7ContactEERKS1_INS_7AccountEEP7QObject@Base 2.0.1
 _ZN6KGAPI220ContactFetchPhotoJobC2ERK5QListI14QSharedPointerINS_7ContactEEERKS2_INS_7AccountEEP7QObject@Base 2.0.1
 _ZN6KGAPI220ContactFetchPhotoJobD0Ev@Base 2.0.1
 _ZN6KGAPI220ContactFetchPhotoJobD1Ev@Base 2.0.1
 _ZN6KGAPI220ContactFetchPhotoJobD2Ev@Base 2.0.1
 _ZN6KGAPI221ContactsGroupFetchJob11qt_metacallEN11QMetaObject4CallEiPPv@Base 2.0.1
 _ZN6KGAPI221ContactsGroupFetchJob11qt_metacastEPKc@Base 2.0.1
 _ZN6KGAPI221ContactsGroupFetchJob16staticMetaObjectE@Base 2.0.1
 _ZN6KGAPI221ContactsGroupFetchJob20handleReplyWithItemsEPK13QNetworkReplyRK10QByteArray@Base 2.0.1
 _ZN6KGAPI221ContactsGroupFetchJob5startEv@Base 2.0.1
 _ZN6KGAPI221ContactsGroupFetchJob7Private13createRequestERK4QUrl@Base 2.0.1
 _ZN6KGAPI221ContactsGroupFetchJob7PrivateC1EPS0_@Base 2.0.1
 _ZN6KGAPI221ContactsGroupFetchJob7PrivateC2EPS0_@Base 2.0.1
 _ZN6KGAPI221ContactsGroupFetchJobC1ERK14QSharedPointerINS_7AccountEEP7QObject@Base 2.0.1
 _ZN6KGAPI221ContactsGroupFetchJobC1ERK7QStringRK14QSharedPointerINS_7AccountEEP7QObject@Base 2.0.1
 _ZN6KGAPI221ContactsGroupFetchJobC2ERK14QSharedPointerINS_7AccountEEP7QObject@Base 2.0.1
 _ZN6KGAPI221ContactsGroupFetchJobC2ERK7QStringRK14QSharedPointerINS_7AccountEEP7QObject@Base 2.0.1
 _ZN6KGAPI221ContactsGroupFetchJobD0Ev@Base 2.0.1
 _ZN6KGAPI221ContactsGroupFetchJobD1Ev@Base 2.0.1
 _ZN6KGAPI221ContactsGroupFetchJobD2Ev@Base 2.0.1
 _ZN6KGAPI221StaticMapTileFetchJob11handleReplyEPK13QNetworkReplyRK10QByteArray@Base 2.0.1
 _ZN6KGAPI221StaticMapTileFetchJob11qt_metacallEN11QMetaObject4CallEiPPv@Base 2.0.1
 _ZN6KGAPI221StaticMapTileFetchJob11qt_metacastEPKc@Base 2.0.1
 _ZN6KGAPI221StaticMapTileFetchJob15dispatchRequestEP21QNetworkAccessManagerRK15QNetworkRequestRK10QByteArrayRK7QString@Base 2.0.1
 _ZN6KGAPI221StaticMapTileFetchJob16staticMetaObjectE@Base 2.0.1
 _ZN6KGAPI221StaticMapTileFetchJob5startEv@Base 2.0.1
 _ZN6KGAPI221StaticMapTileFetchJobC1ERK4QUrlP7QObject@Base 2.0.1
 _ZN6KGAPI221StaticMapTileFetchJobC1ERKNS_12StaticMapUrlEP7QObject@Base 2.0.1
 _ZN6KGAPI221StaticMapTileFetchJobC2ERK4QUrlP7QObject@Base 2.0.1
 _ZN6KGAPI221StaticMapTileFetchJobC2ERKNS_12StaticMapUrlEP7QObject@Base 2.0.1
 _ZN6KGAPI221StaticMapTileFetchJobD0Ev@Base 2.0.1
 _ZN6KGAPI221StaticMapTileFetchJobD1Ev@Base 2.0.1
 _ZN6KGAPI221StaticMapTileFetchJobD2Ev@Base 2.0.1
 _ZN6KGAPI222ContactsGroupCreateJob11qt_metacallEN11QMetaObject4CallEiPPv@Base 2.0.1
 _ZN6KGAPI222ContactsGroupCreateJob11qt_metacastEPKc@Base 2.0.1
 _ZN6KGAPI222ContactsGroupCreateJob16staticMetaObjectE@Base 2.0.1
 _ZN6KGAPI222ContactsGroupCreateJob20handleReplyWithItemsEPK13QNetworkReplyRK10QByteArray@Base 2.0.1
 _ZN6KGAPI222ContactsGroupCreateJob5startEv@Base 2.0.1
 _ZN6KGAPI222ContactsGroupCreateJobC1ERK14QSharedPointerINS_13ContactsGroupEERKS1_INS_7AccountEEP7QObject@Base 2.0.1
 _ZN6KGAPI222ContactsGroupCreateJobC1ERK5QListI14QSharedPointerINS_13ContactsGroupEEERKS2_INS_7AccountEEP7QObject@Base 2.0.1
 _ZN6KGAPI222ContactsGroupCreateJobC2ERK14QSharedPointerINS_13ContactsGroupEERKS1_INS_7AccountEEP7QObject@Base 2.0.1
 _ZN6KGAPI222ContactsGroupCreateJobC2ERK5QListI14QSharedPointerINS_13ContactsGroupEEERKS2_INS_7AccountEEP7QObject@Base 2.0.1
 _ZN6KGAPI222ContactsGroupCreateJobD0Ev@Base 2.0.1
 _ZN6KGAPI222ContactsGroupCreateJobD1Ev@Base 2.0.1
 _ZN6KGAPI222ContactsGroupCreateJobD2Ev@Base 2.0.1
 _ZN6KGAPI222ContactsGroupDeleteJob11handleReplyEPK13QNetworkReplyRK10QByteArray@Base 2.0.1
 _ZN6KGAPI222ContactsGroupDeleteJob11qt_metacallEN11QMetaObject4CallEiPPv@Base 2.0.1
 _ZN6KGAPI222ContactsGroupDeleteJob11qt_metacastEPKc@Base 2.0.1
 _ZN6KGAPI222ContactsGroupDeleteJob16staticMetaObjectE@Base 2.0.1
 _ZN6KGAPI222ContactsGroupDeleteJob5startEv@Base 2.0.1
 _ZN6KGAPI222ContactsGroupDeleteJob7PrivateC1EPS0_@Base 2.0.1
 _ZN6KGAPI222ContactsGroupDeleteJob7PrivateC2EPS0_@Base 2.0.1
 _ZN6KGAPI222ContactsGroupDeleteJobC1ERK11QStringListRK14QSharedPointerINS_7AccountEEP7QObject@Base 2.0.1
 _ZN6KGAPI222ContactsGroupDeleteJobC1ERK14QSharedPointerINS_13ContactsGroupEERKS1_INS_7AccountEEP7QObject@Base 2.0.1
 _ZN6KGAPI222ContactsGroupDeleteJobC1ERK5QListI14QSharedPointerINS_13ContactsGroupEEERKS2_INS_7AccountEEP7QObject@Base 2.0.1
 _ZN6KGAPI222ContactsGroupDeleteJobC1ERK7QStringRK14QSharedPointerINS_7AccountEEP7QObject@Base 2.0.1
 _ZN6KGAPI222ContactsGroupDeleteJobC2ERK11QStringListRK14QSharedPointerINS_7AccountEEP7QObject@Base 2.0.1
 _ZN6KGAPI222ContactsGroupDeleteJobC2ERK14QSharedPointerINS_13ContactsGroupEERKS1_INS_7AccountEEP7QObject@Base 2.0.1
 _ZN6KGAPI222ContactsGroupDeleteJobC2ERK5QListI14QSharedPointerINS_13ContactsGroupEEERKS2_INS_7AccountEEP7QObject@Base 2.0.1
 _ZN6KGAPI222ContactsGroupDeleteJobC2ERK7QStringRK14QSharedPointerINS_7AccountEEP7QObject@Base 2.0.1
 _ZN6KGAPI222ContactsGroupDeleteJobD0Ev@Base 2.0.1
 _ZN6KGAPI222ContactsGroupDeleteJobD1Ev@Base 2.0.1
 _ZN6KGAPI222ContactsGroupDeleteJobD2Ev@Base 2.0.1
 _ZN6KGAPI222ContactsGroupModifyJob11qt_metacallEN11QMetaObject4CallEiPPv@Base 2.0.1
 _ZN6KGAPI222ContactsGroupModifyJob11qt_metacastEPKc@Base 2.0.1
 _ZN6KGAPI222ContactsGroupModifyJob16staticMetaObjectE@Base 2.0.1
 _ZN6KGAPI222ContactsGroupModifyJob20handleReplyWithItemsEPK13QNetworkReplyRK10QByteArray@Base 2.0.1
 _ZN6KGAPI222ContactsGroupModifyJob5startEv@Base 2.0.1
 _ZN6KGAPI222ContactsGroupModifyJobC1ERK14QSharedPointerINS_13ContactsGroupEERKS1_INS_7AccountEEP7QObject@Base 2.0.1
 _ZN6KGAPI222ContactsGroupModifyJobC1ERK5QListI14QSharedPointerINS_13ContactsGroupEEERKS2_INS_7AccountEEP7QObject@Base 2.0.1
 _ZN6KGAPI222ContactsGroupModifyJobC2ERK14QSharedPointerINS_13ContactsGroupEERKS1_INS_7AccountEEP7QObject@Base 2.0.1
 _ZN6KGAPI222ContactsGroupModifyJobC2ERK5QListI14QSharedPointerINS_13ContactsGroupEEERKS2_INS_7AccountEEP7QObject@Base 2.0.1
 _ZN6KGAPI222ContactsGroupModifyJobD0Ev@Base 2.0.1
 _ZN6KGAPI222ContactsGroupModifyJobD1Ev@Base 2.0.1
 _ZN6KGAPI222ContactsGroupModifyJobD2Ev@Base 2.0.1
 _ZN6KGAPI223LocationFetchHistoryJob11qt_metacallEN11QMetaObject4CallEiPPv@Base 2.0.1
 _ZN6KGAPI223LocationFetchHistoryJob11qt_metacastEPKc@Base 2.0.1
 _ZN6KGAPI223LocationFetchHistoryJob13setMaxResultsEi@Base 2.0.1
 _ZN6KGAPI223LocationFetchHistoryJob14setGranularityENS_8Latitude11GranularityE@Base 2.0.1
 _ZN6KGAPI223LocationFetchHistoryJob15setMaxTimestampEx@Base 2.0.1
 _ZN6KGAPI223LocationFetchHistoryJob15setMinTimestampEx@Base 2.0.1
 _ZN6KGAPI223LocationFetchHistoryJob16staticMetaObjectE@Base 2.0.1
 _ZN6KGAPI223LocationFetchHistoryJob20handleReplyWithItemsEPK13QNetworkReplyRK10QByteArray@Base 2.0.1
 _ZN6KGAPI223LocationFetchHistoryJob5startEv@Base 2.0.1
 _ZN6KGAPI223LocationFetchHistoryJob7Private13createRequestERK4QUrl@Base 2.0.1
 _ZN6KGAPI223LocationFetchHistoryJob7PrivateC1EPS0_@Base 2.0.1
 _ZN6KGAPI223LocationFetchHistoryJob7PrivateC2EPS0_@Base 2.0.1
 _ZN6KGAPI223LocationFetchHistoryJobC1ERK14QSharedPointerINS_7AccountEEP7QObject@Base 2.0.1
 _ZN6KGAPI223LocationFetchHistoryJobC2ERK14QSharedPointerINS_7AccountEEP7QObject@Base 2.0.1
 _ZN6KGAPI223LocationFetchHistoryJobD0Ev@Base 2.0.1
 _ZN6KGAPI223LocationFetchHistoryJobD1Ev@Base 2.0.1
 _ZN6KGAPI223LocationFetchHistoryJobD2Ev@Base 2.0.1
 _ZN6KGAPI23Job10setAccountERK14QSharedPointerINS_7AccountEE@Base 2.0.1
 _ZN6KGAPI23Job11qt_metacallEN11QMetaObject4CallEiPPv@Base 2.0.1
 _ZN6KGAPI23Job11qt_metacastEPKc@Base 2.0.1
 _ZN6KGAPI23Job12aboutToStartEv@Base 2.0.1
 _ZN6KGAPI23Job12emitFinishedEv@Base 2.0.1
 _ZN6KGAPI23Job12emitProgressEii@Base 2.0.1
 _ZN6KGAPI23Job13aboutToFinishEv@Base 2.0.1
 _ZN6KGAPI23Job13setMaxTimeoutEi@Base 2.0.1
 _ZN6KGAPI23Job14enqueueRequestERK15QNetworkRequestRK10QByteArrayRK7QString@Base 2.0.1
 _ZN6KGAPI23Job14setErrorStringERK7QString@Base 2.0.1
 _ZN6KGAPI23Job16staticMetaObjectE@Base 2.0.1
 _ZN6KGAPI23Job7Private10_k_doStartEv@Base 2.0.1
 _ZN6KGAPI23Job7Private16_k_replyReceivedEP13QNetworkReply@Base 2.0.1
 _ZN6KGAPI23Job7Private17_k_doEmitFinishedEv@Base 2.0.1
 _ZN6KGAPI23Job7Private17parseErrorMessageERK10QByteArray@Base 2.0.1
 _ZN6KGAPI23Job7Private18_k_dispatchTimeoutEv@Base 2.0.1
 _ZN6KGAPI23Job7Private4initEv@Base 2.0.1
 _ZN6KGAPI23Job7PrivateC1EPS0_@Base 2.0.1
 _ZN6KGAPI23Job7PrivateC2EPS0_@Base 2.0.1
 _ZN6KGAPI23Job7restartEv@Base 2.0.1
 _ZN6KGAPI23Job8finishedEPS0_@Base 2.0.1
 _ZN6KGAPI23Job8progressEPS0_ii@Base 2.0.1
 _ZN6KGAPI23Job8setErrorENS_5ErrorE@Base 2.0.1
 _ZN6KGAPI23JobC1EP7QObject@Base 2.0.1
 _ZN6KGAPI23JobC1ERK14QSharedPointerINS_7AccountEEP7QObject@Base 2.0.1
 _ZN6KGAPI23JobC2EP7QObject@Base 2.0.1
 _ZN6KGAPI23JobC2ERK14QSharedPointerINS_7AccountEEP7QObject@Base 2.0.1
 _ZN6KGAPI23JobD0Ev@Base 2.0.1
 _ZN6KGAPI23JobD1Ev@Base 2.0.1
 _ZN6KGAPI23JobD2Ev@Base 2.0.1
 _ZN6KGAPI24Task10setDeletedEb@Base 2.0.1
 _ZN6KGAPI24Task7PrivateC1ERKS1_@Base 2.0.1
 _ZN6KGAPI24Task7PrivateC1Ev@Base 2.0.1
 _ZN6KGAPI24Task7PrivateC2ERKS1_@Base 2.0.1
 _ZN6KGAPI24Task7PrivateC2Ev@Base 2.0.1
 _ZN6KGAPI24TaskC1ERKN8KCalCore4TodoE@Base 2.0.1
 _ZN6KGAPI24TaskC1ERKS0_@Base 2.0.1
 _ZN6KGAPI24TaskC1Ev@Base 2.0.1
 _ZN6KGAPI24TaskC2ERKN8KCalCore4TodoE@Base 2.0.1
 _ZN6KGAPI24TaskC2ERKS0_@Base 2.0.1
 _ZN6KGAPI24TaskC2Ev@Base 2.0.1
 _ZN6KGAPI24TaskD0Ev@Base 2.0.1
 _ZN6KGAPI24TaskD1Ev@Base 2.0.1
 _ZN6KGAPI24TaskD2Ev@Base 2.0.1
 _ZN6KGAPI25Drive10Permission11setWithLinkEb@Base 2.1.0
 _ZN6KGAPI25Drive10Permission12fromJSONFeedERK10QByteArray@Base 2.1.0
 _ZN6KGAPI25Drive10Permission18setAdditionalRolesERK5QListINS1_4RoleEE@Base 2.1.0
 _ZN6KGAPI25Drive10Permission5setIdERK7QString@Base 2.1.0
 _ZN6KGAPI25Drive10Permission6toJSONERK14QSharedPointerIS1_E@Base 2.1.0
 _ZN6KGAPI25Drive10Permission7Private10roleToNameENS1_4RoleE@Base 2.1.0
 _ZN6KGAPI25Drive10Permission7Private10typeToNameENS1_4TypeE@Base 2.1.0
 _ZN6KGAPI25Drive10Permission7Private12roleFromNameERK7QString@Base 2.1.0
 _ZN6KGAPI25Drive10Permission7Private12typeFromNameERK7QString@Base 2.1.0
 _ZN6KGAPI25Drive10Permission7Private8fromJSONERK4QMapI7QString8QVariantE@Base 2.1.0
 _ZN6KGAPI25Drive10Permission7PrivateC1ERKS2_@Base 2.1.0
 _ZN6KGAPI25Drive10Permission7PrivateC1Ev@Base 2.1.0
 _ZN6KGAPI25Drive10Permission7PrivateC2ERKS2_@Base 2.1.0
 _ZN6KGAPI25Drive10Permission7PrivateC2Ev@Base 2.1.0
 _ZN6KGAPI25Drive10Permission7setRoleENS1_4RoleE@Base 2.1.0
 _ZN6KGAPI25Drive10Permission7setTypeENS1_4TypeE@Base 2.1.0
 _ZN6KGAPI25Drive10Permission8fromJSONERK10QByteArray@Base 2.1.0
 _ZN6KGAPI25Drive10Permission8setValueERK7QString@Base 2.1.0
 _ZN6KGAPI25Drive10PermissionC1ERKS1_@Base 2.1.0
 _ZN6KGAPI25Drive10PermissionC1Ev@Base 2.1.0
 _ZN6KGAPI25Drive10PermissionC2ERKS1_@Base 2.1.0
 _ZN6KGAPI25Drive10PermissionC2Ev@Base 2.1.0
 _ZN6KGAPI25Drive10PermissionD0Ev@Base 2.1.0
 _ZN6KGAPI25Drive10PermissionD1Ev@Base 2.1.0
 _ZN6KGAPI25Drive10PermissionD2Ev@Base 2.1.0
 _ZN6KGAPI25Drive11FileCopyJob11handleReplyEPK13QNetworkReplyRK10QByteArray@Base 2.1.0
 _ZN6KGAPI25Drive11FileCopyJob11qt_metacallEN11QMetaObject4CallEiPPv@Base 2.1.0
 _ZN6KGAPI25Drive11FileCopyJob11qt_metacastEPKc@Base 2.1.0
 _ZN6KGAPI25Drive11FileCopyJob15dispatchRequestEP21QNetworkAccessManagerRK15QNetworkRequestRK10QByteArrayRK7QString@Base 2.1.0
 _ZN6KGAPI25Drive11FileCopyJob16staticMetaObjectE@Base 2.1.0
 _ZN6KGAPI25Drive11FileCopyJob5startEv@Base 2.1.0
 _ZN6KGAPI25Drive11FileCopyJob7Private11processNextEv@Base 2.1.0
 _ZN6KGAPI25Drive11FileCopyJob7PrivateC1EPS1_@Base 2.1.0
 _ZN6KGAPI25Drive11FileCopyJob7PrivateC2EPS1_@Base 2.1.0
 _ZN6KGAPI25Drive11FileCopyJobC1ERK14QSharedPointerINS0_4FileEES6_RKS2_INS_7AccountEEP7QObject@Base 2.1.0
 _ZN6KGAPI25Drive11FileCopyJobC1ERK4QMapI14QSharedPointerINS0_4FileEES5_ERKS3_INS_7AccountEEP7QObject@Base 2.1.0
 _ZN6KGAPI25Drive11FileCopyJobC1ERK4QMapI7QString14QSharedPointerINS0_4FileEEERKS4_INS_7AccountEEP7QObject@Base 2.1.0
 _ZN6KGAPI25Drive11FileCopyJobC1ERK7QStringRK14QSharedPointerINS0_4FileEERKS5_INS_7AccountEEP7QObject@Base 2.1.0
 _ZN6KGAPI25Drive11FileCopyJobC2ERK14QSharedPointerINS0_4FileEES6_RKS2_INS_7AccountEEP7QObject@Base 2.1.0
 _ZN6KGAPI25Drive11FileCopyJobC2ERK4QMapI14QSharedPointerINS0_4FileEES5_ERKS3_INS_7AccountEEP7QObject@Base 2.1.0
 _ZN6KGAPI25Drive11FileCopyJobC2ERK4QMapI7QString14QSharedPointerINS0_4FileEEERKS4_INS_7AccountEEP7QObject@Base 2.1.0
 _ZN6KGAPI25Drive11FileCopyJobC2ERK7QStringRK14QSharedPointerINS0_4FileEERKS5_INS_7AccountEEP7QObject@Base 2.1.0
 _ZN6KGAPI25Drive11FileCopyJobD0Ev@Base 2.1.0
 _ZN6KGAPI25Drive11FileCopyJobD1Ev@Base 2.1.0
 _ZN6KGAPI25Drive11FileCopyJobD2Ev@Base 2.1.0
 _ZN6KGAPI25Drive12FileFetchJob11qt_metacallEN11QMetaObject4CallEiPPv@Base 2.1.0
 _ZN6KGAPI25Drive12FileFetchJob11qt_metacastEPKc@Base 2.1.0
 _ZN6KGAPI25Drive12FileFetchJob16staticMetaObjectE@Base 2.1.0
 _ZN6KGAPI25Drive12FileFetchJob19setUpdateViewedDateEb@Base 2.1.0
 _ZN6KGAPI25Drive12FileFetchJob20handleReplyWithItemsEPK13QNetworkReplyRK10QByteArray@Base 2.1.0
 _ZN6KGAPI25Drive12FileFetchJob5startEv@Base 2.1.0
 _ZN6KGAPI25Drive12FileFetchJob7Private11processNextEv@Base 2.1.0
 _ZN6KGAPI25Drive12FileFetchJob7Private13createRequestERK4QUrl@Base 2.1.0
 _ZN6KGAPI25Drive12FileFetchJob7PrivateC1EPS1_@Base 2.1.0
 _ZN6KGAPI25Drive12FileFetchJob7PrivateC2EPS1_@Base 2.1.0
 _ZN6KGAPI25Drive12FileFetchJobC1ERK11QStringListRK14QSharedPointerINS_7AccountEEP7QObject@Base 2.1.0
 _ZN6KGAPI25Drive12FileFetchJobC1ERK14QSharedPointerINS_7AccountEEP7QObject@Base 2.1.0
 _ZN6KGAPI25Drive12FileFetchJobC1ERK7QStringRK14QSharedPointerINS_7AccountEEP7QObject@Base 2.1.0
 _ZN6KGAPI25Drive12FileFetchJobC2ERK11QStringListRK14QSharedPointerINS_7AccountEEP7QObject@Base 2.1.0
 _ZN6KGAPI25Drive12FileFetchJobC2ERK14QSharedPointerINS_7AccountEEP7QObject@Base 2.1.0
 _ZN6KGAPI25Drive12FileFetchJobC2ERK7QStringRK14QSharedPointerINS_7AccountEEP7QObject@Base 2.1.0
 _ZN6KGAPI25Drive12FileFetchJobD0Ev@Base 2.1.0
 _ZN6KGAPI25Drive12FileFetchJobD1Ev@Base 2.1.0
 _ZN6KGAPI25Drive12FileFetchJobD2Ev@Base 2.1.0
 _ZN6KGAPI25Drive12FileTouchJob11qt_metacallEN11QMetaObject4CallEiPPv@Base 2.1.0
 _ZN6KGAPI25Drive12FileTouchJob11qt_metacastEPKc@Base 2.1.0
 _ZN6KGAPI25Drive12FileTouchJob16staticMetaObjectE@Base 2.1.0
 _ZN6KGAPI25Drive12FileTouchJob3urlERK7QString@Base 2.1.0
 _ZN6KGAPI25Drive12FileTouchJobC1ERK11QStringListRK14QSharedPointerINS_7AccountEEP7QObject@Base 2.1.0
 _ZN6KGAPI25Drive12FileTouchJobC1ERK14QSharedPointerINS0_4FileEERKS2_INS_7AccountEEP7QObject@Base 2.1.0
 _ZN6KGAPI25Drive12FileTouchJobC1ERK5QListI14QSharedPointerINS0_4FileEEERKS3_INS_7AccountEEP7QObject@Base 2.1.0
 _ZN6KGAPI25Drive12FileTouchJobC1ERK7QStringRK14QSharedPointerINS_7AccountEEP7QObject@Base 2.1.0
 _ZN6KGAPI25Drive12FileTouchJobC2ERK11QStringListRK14QSharedPointerINS_7AccountEEP7QObject@Base 2.1.0
 _ZN6KGAPI25Drive12FileTouchJobC2ERK14QSharedPointerINS0_4FileEERKS2_INS_7AccountEEP7QObject@Base 2.1.0
 _ZN6KGAPI25Drive12FileTouchJobC2ERK5QListI14QSharedPointerINS0_4FileEEERKS3_INS_7AccountEEP7QObject@Base 2.1.0
 _ZN6KGAPI25Drive12FileTouchJobC2ERK7QStringRK14QSharedPointerINS_7AccountEEP7QObject@Base 2.1.0
 _ZN6KGAPI25Drive12FileTouchJobD0Ev@Base 2.1.0
 _ZN6KGAPI25Drive12FileTouchJobD1Ev@Base 2.1.0
 _ZN6KGAPI25Drive12FileTouchJobD2Ev@Base 2.1.0
 _ZN6KGAPI25Drive12FileTrashJob11qt_metacallEN11QMetaObject4CallEiPPv@Base 2.1.0
 _ZN6KGAPI25Drive12FileTrashJob11qt_metacastEPKc@Base 2.1.0
 _ZN6KGAPI25Drive12FileTrashJob16staticMetaObjectE@Base 2.1.0
 _ZN6KGAPI25Drive12FileTrashJob3urlERK7QString@Base 2.1.0
 _ZN6KGAPI25Drive12FileTrashJobC1ERK11QStringListRK14QSharedPointerINS_7AccountEEP7QObject@Base 2.1.0
 _ZN6KGAPI25Drive12FileTrashJobC1ERK14QSharedPointerINS0_4FileEERKS2_INS_7AccountEEP7QObject@Base 2.1.0
 _ZN6KGAPI25Drive12FileTrashJobC1ERK5QListI14QSharedPointerINS0_4FileEEERKS3_INS_7AccountEEP7QObject@Base 2.1.0
 _ZN6KGAPI25Drive12FileTrashJobC1ERK7QStringRK14QSharedPointerINS_7AccountEEP7QObject@Base 2.1.0
 _ZN6KGAPI25Drive12FileTrashJobC2ERK11QStringListRK14QSharedPointerINS_7AccountEEP7QObject@Base 2.1.0
 _ZN6KGAPI25Drive12FileTrashJobC2ERK14QSharedPointerINS0_4FileEERKS2_INS_7AccountEEP7QObject@Base 2.1.0
 _ZN6KGAPI25Drive12FileTrashJobC2ERK5QListI14QSharedPointerINS0_4FileEEERKS3_INS_7AccountEEP7QObject@Base 2.1.0
 _ZN6KGAPI25Drive12FileTrashJobC2ERK7QStringRK14QSharedPointerINS_7AccountEEP7QObject@Base 2.1.0
 _ZN6KGAPI25Drive12FileTrashJobD0Ev@Base 2.1.0
 _ZN6KGAPI25Drive12FileTrashJobD1Ev@Base 2.1.0
 _ZN6KGAPI25Drive12FileTrashJobD2Ev@Base 2.1.0
 _ZN6KGAPI25Drive13AboutFetchJob11qt_metacallEN11QMetaObject4CallEiPPv@Base 2.1.0
 _ZN6KGAPI25Drive13AboutFetchJob11qt_metacastEPKc@Base 2.1.0
 _ZN6KGAPI25Drive13AboutFetchJob16setStartChangeIdEx@Base 2.1.0
 _ZN6KGAPI25Drive13AboutFetchJob16staticMetaObjectE@Base 2.1.0
 _ZN6KGAPI25Drive13AboutFetchJob19setMaxChangeIdCountEx@Base 2.1.0
 _ZN6KGAPI25Drive13AboutFetchJob20handleReplyWithItemsEPK13QNetworkReplyRK10QByteArray@Base 2.1.0
 _ZN6KGAPI25Drive13AboutFetchJob20setIncludeSubscribedEb@Base 2.1.0
 _ZN6KGAPI25Drive13AboutFetchJob5startEv@Base 2.1.0
 _ZN6KGAPI25Drive13AboutFetchJob7PrivateC1Ev@Base 2.1.0
 _ZN6KGAPI25Drive13AboutFetchJob7PrivateC2Ev@Base 2.1.0
 _ZN6KGAPI25Drive13AboutFetchJobC1ERK14QSharedPointerINS_7AccountEEP7QObject@Base 2.1.0
 _ZN6KGAPI25Drive13AboutFetchJobC2ERK14QSharedPointerINS_7AccountEEP7QObject@Base 2.1.0
 _ZN6KGAPI25Drive13AboutFetchJobD0Ev@Base 2.1.0
 _ZN6KGAPI25Drive13AboutFetchJobD1Ev@Base 2.1.0
 _ZN6KGAPI25Drive13AboutFetchJobD2Ev@Base 2.1.0
 _ZN6KGAPI25Drive13FileCreateJob11qt_metacallEN11QMetaObject4CallEiPPv@Base 2.1.0
 _ZN6KGAPI25Drive13FileCreateJob11qt_metacastEPKc@Base 2.1.0
 _ZN6KGAPI25Drive13FileCreateJob16staticMetaObjectE@Base 2.1.0
 _ZN6KGAPI25Drive13FileCreateJob8dispatchEP21QNetworkAccessManagerRK15QNetworkRequestRK10QByteArray@Base 2.1.0
 _ZN6KGAPI25Drive13FileCreateJob9createUrlERK7QStringRK14QSharedPointerINS0_4FileEE@Base 2.1.0
 _ZN6KGAPI25Drive13FileCreateJobC1ERK11QStringListRK14QSharedPointerINS_7AccountEEP7QObject@Base 2.1.0
 _ZN6KGAPI25Drive13FileCreateJobC1ERK14QSharedPointerINS0_4FileEERKS2_INS_7AccountEEP7QObject@Base 2.1.0
 _ZN6KGAPI25Drive13FileCreateJobC1ERK4QMapI7QString14QSharedPointerINS0_4FileEEERKS4_INS_7AccountEEP7QObject@Base 2.1.0
 _ZN6KGAPI25Drive13FileCreateJobC1ERK5QListI14QSharedPointerINS0_4FileEEERKS3_INS_7AccountEEP7QObject@Base 2.1.0
 _ZN6KGAPI25Drive13FileCreateJobC1ERK7QStringRK14QSharedPointerINS0_4FileEERKS5_INS_7AccountEEP7QObject@Base 2.1.0
 _ZN6KGAPI25Drive13FileCreateJobC1ERK7QStringRK14QSharedPointerINS_7AccountEEP7QObject@Base 2.1.0
 _ZN6KGAPI25Drive13FileCreateJobC2ERK11QStringListRK14QSharedPointerINS_7AccountEEP7QObject@Base 2.1.0
 _ZN6KGAPI25Drive13FileCreateJobC2ERK14QSharedPointerINS0_4FileEERKS2_INS_7AccountEEP7QObject@Base 2.1.0
 _ZN6KGAPI25Drive13FileCreateJobC2ERK4QMapI7QString14QSharedPointerINS0_4FileEEERKS4_INS_7AccountEEP7QObject@Base 2.1.0
 _ZN6KGAPI25Drive13FileCreateJobC2ERK5QListI14QSharedPointerINS0_4FileEEERKS3_INS_7AccountEEP7QObject@Base 2.1.0
 _ZN6KGAPI25Drive13FileCreateJobC2ERK7QStringRK14QSharedPointerINS0_4FileEERKS5_INS_7AccountEEP7QObject@Base 2.1.0
 _ZN6KGAPI25Drive13FileCreateJobC2ERK7QStringRK14QSharedPointerINS_7AccountEEP7QObject@Base 2.1.0
 _ZN6KGAPI25Drive13FileCreateJobD0Ev@Base 2.1.0
 _ZN6KGAPI25Drive13FileCreateJobD1Ev@Base 2.1.0
 _ZN6KGAPI25Drive13FileCreateJobD2Ev@Base 2.1.0
 _ZN6KGAPI25Drive13FileDeleteJob11qt_metacallEN11QMetaObject4CallEiPPv@Base 2.1.0
 _ZN6KGAPI25Drive13FileDeleteJob11qt_metacastEPKc@Base 2.1.0
 _ZN6KGAPI25Drive13FileDeleteJob16staticMetaObjectE@Base 2.1.0
 _ZN6KGAPI25Drive13FileDeleteJob5startEv@Base 2.1.0
 _ZN6KGAPI25Drive13FileDeleteJobC1ERK11QStringListRK14QSharedPointerINS_7AccountEEP7QObject@Base 2.1.0
 _ZN6KGAPI25Drive13FileDeleteJobC1ERK14QSharedPointerINS0_4FileEERKS2_INS_7AccountEEP7QObject@Base 2.1.0
 _ZN6KGAPI25Drive13FileDeleteJobC1ERK5QListI14QSharedPointerINS0_4FileEEERKS3_INS_7AccountEEP7QObject@Base 2.1.0
 _ZN6KGAPI25Drive13FileDeleteJobC1ERK7QStringRK14QSharedPointerINS_7AccountEEP7QObject@Base 2.1.0
 _ZN6KGAPI25Drive13FileDeleteJobC2ERK11QStringListRK14QSharedPointerINS_7AccountEEP7QObject@Base 2.1.0
 _ZN6KGAPI25Drive13FileDeleteJobC2ERK14QSharedPointerINS0_4FileEERKS2_INS_7AccountEEP7QObject@Base 2.1.0
 _ZN6KGAPI25Drive13FileDeleteJobC2ERK5QListI14QSharedPointerINS0_4FileEEERKS3_INS_7AccountEEP7QObject@Base 2.1.0
 _ZN6KGAPI25Drive13FileDeleteJobC2ERK7QStringRK14QSharedPointerINS_7AccountEEP7QObject@Base 2.1.0
 _ZN6KGAPI25Drive13FileDeleteJobD0Ev@Base 2.1.0
 _ZN6KGAPI25Drive13FileDeleteJobD1Ev@Base 2.1.0
 _ZN6KGAPI25Drive13FileDeleteJobD2Ev@Base 2.1.0
 _ZN6KGAPI25Drive13FileModifyJob11qt_metacallEN11QMetaObject4CallEiPPv@Base 2.1.0
 _ZN6KGAPI25Drive13FileModifyJob11qt_metacastEPKc@Base 2.1.0
 _ZN6KGAPI25Drive13FileModifyJob16staticMetaObjectE@Base 2.1.0
 _ZN6KGAPI25Drive13FileModifyJob19setUpdateViewedDateEb@Base 2.1.0
 _ZN6KGAPI25Drive13FileModifyJob20setCreateNewRevisionEb@Base 2.1.0
 _ZN6KGAPI25Drive13FileModifyJob21setUpdateModifiedDateEb@Base 2.1.0
 _ZN6KGAPI25Drive13FileModifyJob7PrivateC1Ev@Base 2.1.0
 _ZN6KGAPI25Drive13FileModifyJob7PrivateC2Ev@Base 2.1.0
 _ZN6KGAPI25Drive13FileModifyJob8dispatchEP21QNetworkAccessManagerRK15QNetworkRequestRK10QByteArray@Base 2.1.0
 _ZN6KGAPI25Drive13FileModifyJob9createUrlERK7QStringRK14QSharedPointerINS0_4FileEE@Base 2.1.0
 _ZN6KGAPI25Drive13FileModifyJobC1ERK14QSharedPointerINS0_4FileEERKS2_INS_7AccountEEP7QObject@Base 2.1.0
 _ZN6KGAPI25Drive13FileModifyJobC1ERK4QMapI7QString14QSharedPointerINS0_4FileEEERKS4_INS_7AccountEEP7QObject@Base 2.1.0
 _ZN6KGAPI25Drive13FileModifyJobC1ERK4QMapI7QStringS3_ERK14QSharedPointerINS_7AccountEEP7QObject@Base 2.1.0
 _ZN6KGAPI25Drive13FileModifyJobC1ERK7QStringRK14QSharedPointerINS0_4FileEERKS5_INS_7AccountEEP7QObject@Base 2.1.0
 _ZN6KGAPI25Drive13FileModifyJobC1ERK7QStringS4_RK14QSharedPointerINS_7AccountEEP7QObject@Base 2.1.0
 _ZN6KGAPI25Drive13FileModifyJobC2ERK14QSharedPointerINS0_4FileEERKS2_INS_7AccountEEP7QObject@Base 2.1.0
 _ZN6KGAPI25Drive13FileModifyJobC2ERK4QMapI7QString14QSharedPointerINS0_4FileEEERKS4_INS_7AccountEEP7QObject@Base 2.1.0
 _ZN6KGAPI25Drive13FileModifyJobC2ERK4QMapI7QStringS3_ERK14QSharedPointerINS_7AccountEEP7QObject@Base 2.1.0
 _ZN6KGAPI25Drive13FileModifyJobC2ERK7QStringRK14QSharedPointerINS0_4FileEERKS5_INS_7AccountEEP7QObject@Base 2.1.0
 _ZN6KGAPI25Drive13FileModifyJobC2ERK7QStringS4_RK14QSharedPointerINS_7AccountEEP7QObject@Base 2.1.0
 _ZN6KGAPI25Drive13FileModifyJobD0Ev@Base 2.1.0
 _ZN6KGAPI25Drive13FileModifyJobD1Ev@Base 2.1.0
 _ZN6KGAPI25Drive13FileModifyJobD2Ev@Base 2.1.0
 _ZN6KGAPI25Drive14ChangeFetchJob11qt_metacallEN11QMetaObject4CallEiPPv@Base 2.1.0
 _ZN6KGAPI25Drive14ChangeFetchJob11qt_metacastEPKc@Base 2.1.0
 _ZN6KGAPI25Drive14ChangeFetchJob13setMaxResultsEi@Base 2.1.0
 _ZN6KGAPI25Drive14ChangeFetchJob16setStartChangeIdEx@Base 2.1.0
 _ZN6KGAPI25Drive14ChangeFetchJob16staticMetaObjectE@Base 2.1.0
 _ZN6KGAPI25Drive14ChangeFetchJob17setIncludeDeletedEb@Base 2.1.0
 _ZN6KGAPI25Drive14ChangeFetchJob20handleReplyWithItemsEPK13QNetworkReplyRK10QByteArray@Base 2.1.0
 _ZN6KGAPI25Drive14ChangeFetchJob20setIncludeSubscribedEb@Base 2.1.0
 _ZN6KGAPI25Drive14ChangeFetchJob5startEv@Base 2.1.0
 _ZN6KGAPI25Drive14ChangeFetchJob7Private13createRequestERK4QUrl@Base 2.1.0
 _ZN6KGAPI25Drive14ChangeFetchJob7PrivateC1EPS1_@Base 2.1.0
 _ZN6KGAPI25Drive14ChangeFetchJob7PrivateC2EPS1_@Base 2.1.0
 _ZN6KGAPI25Drive14ChangeFetchJobC1ERK14QSharedPointerINS_7AccountEEP7QObject@Base 2.1.0
 _ZN6KGAPI25Drive14ChangeFetchJobC1ERK7QStringRK14QSharedPointerINS_7AccountEEP7QObject@Base 2.1.0
 _ZN6KGAPI25Drive14ChangeFetchJobC2ERK14QSharedPointerINS_7AccountEEP7QObject@Base 2.1.0
 _ZN6KGAPI25Drive14ChangeFetchJobC2ERK7QStringRK14QSharedPointerINS_7AccountEEP7QObject@Base 2.1.0
 _ZN6KGAPI25Drive14ChangeFetchJobD0Ev@Base 2.1.0
 _ZN6KGAPI25Drive14ChangeFetchJobD1Ev@Base 2.1.0
 _ZN6KGAPI25Drive14ChangeFetchJobD2Ev@Base 2.1.0
 _ZN6KGAPI25Drive14ChildReference12fromJSONFeedERK10QByteArrayRNS_8FeedDataE@Base 2.1.0
 _ZN6KGAPI25Drive14ChildReference6toJSONERK14QSharedPointerIS1_E@Base 2.1.0
 _ZN6KGAPI25Drive14ChildReference7Private8fromJSONERK4QMapI7QString8QVariantE@Base 2.1.0
 _ZN6KGAPI25Drive14ChildReference7PrivateC1ERKS2_@Base 2.1.0
 _ZN6KGAPI25Drive14ChildReference7PrivateC1Ev@Base 2.1.0
 _ZN6KGAPI25Drive14ChildReference7PrivateC2ERKS2_@Base 2.1.0
 _ZN6KGAPI25Drive14ChildReference7PrivateC2Ev@Base 2.1.0
 _ZN6KGAPI25Drive14ChildReference8fromJSONERK10QByteArray@Base 2.1.0
 _ZN6KGAPI25Drive14ChildReferenceC1ERK7QString@Base 2.1.0
 _ZN6KGAPI25Drive14ChildReferenceC1ERKS1_@Base 2.1.0
 _ZN6KGAPI25Drive14ChildReferenceC2ERK7QString@Base 2.1.0
 _ZN6KGAPI25Drive14ChildReferenceC2ERKS1_@Base 2.1.0
 _ZN6KGAPI25Drive14ChildReferenceD0Ev@Base 2.1.0
 _ZN6KGAPI25Drive14ChildReferenceD1Ev@Base 2.1.0
 _ZN6KGAPI25Drive14ChildReferenceD2Ev@Base 2.1.0
 _ZN6KGAPI25Drive14FileUntrashJob11qt_metacallEN11QMetaObject4CallEiPPv@Base 2.1.0
 _ZN6KGAPI25Drive14FileUntrashJob11qt_metacastEPKc@Base 2.1.0
 _ZN6KGAPI25Drive14FileUntrashJob16staticMetaObjectE@Base 2.1.0
 _ZN6KGAPI25Drive14FileUntrashJob3urlERK7QString@Base 2.1.0
 _ZN6KGAPI25Drive14FileUntrashJobC1ERK11QStringListRK14QSharedPointerINS_7AccountEEP7QObject@Base 2.1.0
 _ZN6KGAPI25Drive14FileUntrashJobC1ERK14QSharedPointerINS0_4FileEERKS2_INS_7AccountEEP7QObject@Base 2.1.0
 _ZN6KGAPI25Drive14FileUntrashJobC1ERK5QListI14QSharedPointerINS0_4FileEEERKS3_INS_7AccountEEP7QObject@Base 2.1.0
 _ZN6KGAPI25Drive14FileUntrashJobC1ERK7QStringRK14QSharedPointerINS_7AccountEEP7QObject@Base 2.1.0
 _ZN6KGAPI25Drive14FileUntrashJobC2ERK11QStringListRK14QSharedPointerINS_7AccountEEP7QObject@Base 2.1.0
 _ZN6KGAPI25Drive14FileUntrashJobC2ERK14QSharedPointerINS0_4FileEERKS2_INS_7AccountEEP7QObject@Base 2.1.0
 _ZN6KGAPI25Drive14FileUntrashJobC2ERK5QListI14QSharedPointerINS0_4FileEEERKS3_INS_7AccountEEP7QObject@Base 2.1.0
 _ZN6KGAPI25Drive14FileUntrashJobC2ERK7QStringRK14QSharedPointerINS_7AccountEEP7QObject@Base 2.1.0
 _ZN6KGAPI25Drive14FileUntrashJobD0Ev@Base 2.1.0
 _ZN6KGAPI25Drive14FileUntrashJobD1Ev@Base 2.1.0
 _ZN6KGAPI25Drive14FileUntrashJobD2Ev@Base 2.1.0
 _ZN6KGAPI25Drive15ParentReference12fromJSONFeedERK10QByteArray@Base 2.1.0
 _ZN6KGAPI25Drive15ParentReference6toJSONERK14QSharedPointerIS1_E@Base 2.1.0
 _ZN6KGAPI25Drive15ParentReference7Private6toJSONERK14QSharedPointerIS1_E@Base 2.1.0
 _ZN6KGAPI25Drive15ParentReference7Private8fromJSONERK4QMapI7QString8QVariantE@Base 2.1.0
 _ZN6KGAPI25Drive15ParentReference7PrivateC1ERKS2_@Base 2.1.0
 _ZN6KGAPI25Drive15ParentReference7PrivateC1Ev@Base 2.1.0
 _ZN6KGAPI25Drive15ParentReference7PrivateC2ERKS2_@Base 2.1.0
 _ZN6KGAPI25Drive15ParentReference7PrivateC2Ev@Base 2.1.0
 _ZN6KGAPI25Drive15ParentReference8fromJSONERK10QByteArray@Base 2.1.0
 _ZN6KGAPI25Drive15ParentReferenceC1ERK7QString@Base 2.1.0
 _ZN6KGAPI25Drive15ParentReferenceC1ERKS1_@Base 2.1.0
 _ZN6KGAPI25Drive15ParentReferenceC2ERK7QString@Base 2.1.0
 _ZN6KGAPI25Drive15ParentReferenceC2ERKS1_@Base 2.1.0
 _ZN6KGAPI25Drive15ParentReferenceD0Ev@Base 2.1.0
 _ZN6KGAPI25Drive15ParentReferenceD1Ev@Base 2.1.0
 _ZN6KGAPI25Drive15ParentReferenceD2Ev@Base 2.1.0
 _ZN6KGAPI25Drive16RevisionFetchJob11qt_metacallEN11QMetaObject4CallEiPPv@Base 2.1.0
 _ZN6KGAPI25Drive16RevisionFetchJob11qt_metacastEPKc@Base 2.1.0
 _ZN6KGAPI25Drive16RevisionFetchJob16staticMetaObjectE@Base 2.1.0
 _ZN6KGAPI25Drive16RevisionFetchJob20handleReplyWithItemsEPK13QNetworkReplyRK10QByteArray@Base 2.1.0
 _ZN6KGAPI25Drive16RevisionFetchJob5startEv@Base 2.1.0
 _ZN6KGAPI25Drive16RevisionFetchJobC1ERK7QStringRK14QSharedPointerINS_7AccountEEP7QObject@Base 2.1.0
 _ZN6KGAPI25Drive16RevisionFetchJobC1ERK7QStringS4_RK14QSharedPointerINS_7AccountEEP7QObject@Base 2.1.0
 _ZN6KGAPI25Drive16RevisionFetchJobC2ERK7QStringRK14QSharedPointerINS_7AccountEEP7QObject@Base 2.1.0
 _ZN6KGAPI25Drive16RevisionFetchJobC2ERK7QStringS4_RK14QSharedPointerINS_7AccountEEP7QObject@Base 2.1.0
 _ZN6KGAPI25Drive16RevisionFetchJobD0Ev@Base 2.1.0
 _ZN6KGAPI25Drive16RevisionFetchJobD1Ev@Base 2.1.0
 _ZN6KGAPI25Drive16RevisionFetchJobD2Ev@Base 2.1.0
 _ZN6KGAPI25Drive17RevisionDeleteJob11qt_metacallEN11QMetaObject4CallEiPPv@Base 2.1.0
 _ZN6KGAPI25Drive17RevisionDeleteJob11qt_metacastEPKc@Base 2.1.0
 _ZN6KGAPI25Drive17RevisionDeleteJob16staticMetaObjectE@Base 2.1.0
 _ZN6KGAPI25Drive17RevisionDeleteJob5startEv@Base 2.1.0
 _ZN6KGAPI25Drive17RevisionDeleteJobC1ERK7QStringRK11QStringListRK14QSharedPointerINS_7AccountEEP7QObject@Base 2.1.0
 _ZN6KGAPI25Drive17RevisionDeleteJobC1ERK7QStringRK14QSharedPointerINS0_8RevisionEERKS5_INS_7AccountEEP7QObject@Base 2.1.0
 _ZN6KGAPI25Drive17RevisionDeleteJobC1ERK7QStringRK5QListI14QSharedPointerINS0_8RevisionEEERKS6_INS_7AccountEEP7QObject@Base 2.1.0
 _ZN6KGAPI25Drive17RevisionDeleteJobC1ERK7QStringS4_RK14QSharedPointerINS_7AccountEEP7QObject@Base 2.1.0
 _ZN6KGAPI25Drive17RevisionDeleteJobC2ERK7QStringRK11QStringListRK14QSharedPointerINS_7AccountEEP7QObject@Base 2.1.0
 _ZN6KGAPI25Drive17RevisionDeleteJobC2ERK7QStringRK14QSharedPointerINS0_8RevisionEERKS5_INS_7AccountEEP7QObject@Base 2.1.0
 _ZN6KGAPI25Drive17RevisionDeleteJobC2ERK7QStringRK5QListI14QSharedPointerINS0_8RevisionEEERKS6_INS_7AccountEEP7QObject@Base 2.1.0
 _ZN6KGAPI25Drive17RevisionDeleteJobC2ERK7QStringS4_RK14QSharedPointerINS_7AccountEEP7QObject@Base 2.1.0
 _ZN6KGAPI25Drive17RevisionDeleteJobD0Ev@Base 2.1.0
 _ZN6KGAPI25Drive17RevisionDeleteJobD1Ev@Base 2.1.0
 _ZN6KGAPI25Drive17RevisionDeleteJobD2Ev@Base 2.1.0
 _ZN6KGAPI25Drive17RevisionModifyJob11qt_metacallEN11QMetaObject4CallEiPPv@Base 2.1.0
 _ZN6KGAPI25Drive17RevisionModifyJob11qt_metacastEPKc@Base 2.1.0
 _ZN6KGAPI25Drive17RevisionModifyJob16staticMetaObjectE@Base 2.1.0
 _ZN6KGAPI25Drive17RevisionModifyJob20handleReplyWithItemsEPK13QNetworkReplyRK10QByteArray@Base 2.1.0
 _ZN6KGAPI25Drive17RevisionModifyJob5startEv@Base 2.1.0
 _ZN6KGAPI25Drive17RevisionModifyJob7Private11processNextEv@Base 2.1.0
 _ZN6KGAPI25Drive17RevisionModifyJob7PrivateC1EPS1_@Base 2.1.0
 _ZN6KGAPI25Drive17RevisionModifyJob7PrivateC2EPS1_@Base 2.1.0
 _ZN6KGAPI25Drive17RevisionModifyJobC1ERK7QStringRK14QSharedPointerINS0_8RevisionEERKS5_INS_7AccountEEP7QObject@Base 2.1.0
 _ZN6KGAPI25Drive17RevisionModifyJobC1ERK7QStringRK5QListI14QSharedPointerINS0_8RevisionEEERKS6_INS_7AccountEEP7QObject@Base 2.1.0
 _ZN6KGAPI25Drive17RevisionModifyJobC2ERK7QStringRK14QSharedPointerINS0_8RevisionEERKS5_INS_7AccountEEP7QObject@Base 2.1.0
 _ZN6KGAPI25Drive17RevisionModifyJobC2ERK7QStringRK5QListI14QSharedPointerINS0_8RevisionEEERKS6_INS_7AccountEEP7QObject@Base 2.1.0
 _ZN6KGAPI25Drive17RevisionModifyJobD0Ev@Base 2.1.0
 _ZN6KGAPI25Drive17RevisionModifyJobD1Ev@Base 2.1.0
 _ZN6KGAPI25Drive17RevisionModifyJobD2Ev@Base 2.1.0
 _ZN6KGAPI25Drive18PermissionFetchJob11qt_metacallEN11QMetaObject4CallEiPPv@Base 2.1.0
 _ZN6KGAPI25Drive18PermissionFetchJob11qt_metacastEPKc@Base 2.1.0
 _ZN6KGAPI25Drive18PermissionFetchJob16staticMetaObjectE@Base 2.1.0
 _ZN6KGAPI25Drive18PermissionFetchJob20handleReplyWithItemsEPK13QNetworkReplyRK10QByteArray@Base 2.1.0
 _ZN6KGAPI25Drive18PermissionFetchJob5startEv@Base 2.1.0
 _ZN6KGAPI25Drive18PermissionFetchJobC1ERK14QSharedPointerINS0_4FileEERK7QStringRKS2_INS_7AccountEEP7QObject@Base 2.1.0
 _ZN6KGAPI25Drive18PermissionFetchJobC1ERK14QSharedPointerINS0_4FileEERKS2_INS_7AccountEEP7QObject@Base 2.1.0
 _ZN6KGAPI25Drive18PermissionFetchJobC1ERK7QStringRK14QSharedPointerINS_7AccountEEP7QObject@Base 2.1.0
 _ZN6KGAPI25Drive18PermissionFetchJobC1ERK7QStringS4_RK14QSharedPointerINS_7AccountEEP7QObject@Base 2.1.0
 _ZN6KGAPI25Drive18PermissionFetchJobC2ERK14QSharedPointerINS0_4FileEERK7QStringRKS2_INS_7AccountEEP7QObject@Base 2.1.0
 _ZN6KGAPI25Drive18PermissionFetchJobC2ERK14QSharedPointerINS0_4FileEERKS2_INS_7AccountEEP7QObject@Base 2.1.0
 _ZN6KGAPI25Drive18PermissionFetchJobC2ERK7QStringRK14QSharedPointerINS_7AccountEEP7QObject@Base 2.1.0
 _ZN6KGAPI25Drive18PermissionFetchJobC2ERK7QStringS4_RK14QSharedPointerINS_7AccountEEP7QObject@Base 2.1.0
 _ZN6KGAPI25Drive18PermissionFetchJobD0Ev@Base 2.1.0
 _ZN6KGAPI25Drive18PermissionFetchJobD1Ev@Base 2.1.0
 _ZN6KGAPI25Drive18PermissionFetchJobD2Ev@Base 2.1.0
 _ZN6KGAPI25Drive19FileAbstractDataJob10setConvertEb@Base 2.1.0
 _ZN6KGAPI25Drive19FileAbstractDataJob11qt_metacallEN11QMetaObject4CallEiPPv@Base 2.1.0
 _ZN6KGAPI25Drive19FileAbstractDataJob11qt_metacastEPKc@Base 2.1.0
 _ZN6KGAPI25Drive19FileAbstractDataJob14setOcrLanguageERK7QString@Base 2.1.0
 _ZN6KGAPI25Drive19FileAbstractDataJob16staticMetaObjectE@Base 2.1.0
 _ZN6KGAPI25Drive19FileAbstractDataJob20setTimedTextLanguageERK7QString@Base 2.1.0
 _ZN6KGAPI25Drive19FileAbstractDataJob21setTimedTextTrackNameERK7QString@Base 2.1.0
 _ZN6KGAPI25Drive19FileAbstractDataJob6setOcrEb@Base 2.1.0
 _ZN6KGAPI25Drive19FileAbstractDataJob7PrivateC1Ev@Base 2.1.0
 _ZN6KGAPI25Drive19FileAbstractDataJob7PrivateC2Ev@Base 2.1.0
 _ZN6KGAPI25Drive19FileAbstractDataJob9setPinnedEb@Base 2.1.0
 _ZN6KGAPI25Drive19FileAbstractDataJob9updateUrlER4QUrl@Base 2.1.0
 _ZN6KGAPI25Drive19FileAbstractDataJobC1ERK14QSharedPointerINS_7AccountEEP7QObject@Base 2.1.0
 _ZN6KGAPI25Drive19FileAbstractDataJobC2ERK14QSharedPointerINS_7AccountEEP7QObject@Base 2.1.0
 _ZN6KGAPI25Drive19FileAbstractDataJobD0Ev@Base 2.1.0
 _ZN6KGAPI25Drive19FileAbstractDataJobD1Ev@Base 2.1.0
 _ZN6KGAPI25Drive19FileAbstractDataJobD2Ev@Base 2.1.0
 _ZN6KGAPI25Drive19FileFetchContentJob11handleReplyEPK13QNetworkReplyRK10QByteArray@Base 2.1.0
 _ZN6KGAPI25Drive19FileFetchContentJob11qt_metacallEN11QMetaObject4CallEiPPv@Base 2.1.0
 _ZN6KGAPI25Drive19FileFetchContentJob11qt_metacastEPKc@Base 2.1.0
 _ZN6KGAPI25Drive19FileFetchContentJob15dispatchRequestEP21QNetworkAccessManagerRK15QNetworkRequestRK10QByteArrayRK7QString@Base 2.1.0
 _ZN6KGAPI25Drive19FileFetchContentJob16staticMetaObjectE@Base 2.1.0
 _ZN6KGAPI25Drive19FileFetchContentJob20handleReplyWithItemsEPK13QNetworkReplyRK10QByteArray@Base 2.1.0
 _ZN6KGAPI25Drive19FileFetchContentJob5startEv@Base 2.1.0
 _ZN6KGAPI25Drive19FileFetchContentJob7Private19_k_downloadProgressExx@Base 2.1.0
 _ZN6KGAPI25Drive19FileFetchContentJob7PrivateC1EPS1_@Base 2.1.0
 _ZN6KGAPI25Drive19FileFetchContentJob7PrivateC2EPS1_@Base 2.1.0
 _ZN6KGAPI25Drive19FileFetchContentJobC1ERK14QSharedPointerINS0_4FileEERKS2_INS_7AccountEEP7QObject@Base 2.1.0
 _ZN6KGAPI25Drive19FileFetchContentJobC1ERK4QUrlRK14QSharedPointerINS_7AccountEEP7QObject@Base 2.1.0
 _ZN6KGAPI25Drive19FileFetchContentJobC2ERK14QSharedPointerINS0_4FileEERKS2_INS_7AccountEEP7QObject@Base 2.1.0
 _ZN6KGAPI25Drive19FileFetchContentJobC2ERK4QUrlRK14QSharedPointerINS_7AccountEEP7QObject@Base 2.1.0
 _ZN6KGAPI25Drive19FileFetchContentJobD0Ev@Base 2.1.0
 _ZN6KGAPI25Drive19FileFetchContentJobD1Ev@Base 2.1.0
 _ZN6KGAPI25Drive19FileFetchContentJobD2Ev@Base 2.1.0
 _ZN6KGAPI25Drive19PermissionCreateJob11qt_metacallEN11QMetaObject4CallEiPPv@Base 2.1.0
 _ZN6KGAPI25Drive19PermissionCreateJob11qt_metacastEPKc@Base 2.1.0
 _ZN6KGAPI25Drive19PermissionCreateJob16staticMetaObjectE@Base 2.1.0
 _ZN6KGAPI25Drive19PermissionCreateJob20handleReplyWithItemsEPK13QNetworkReplyRK10QByteArray@Base 2.1.0
 _ZN6KGAPI25Drive19PermissionCreateJob5startEv@Base 2.1.0
 _ZN6KGAPI25Drive19PermissionCreateJob7Private11processNextEv@Base 2.1.0
 _ZN6KGAPI25Drive19PermissionCreateJob7PrivateC1EPS1_@Base 2.1.0
 _ZN6KGAPI25Drive19PermissionCreateJob7PrivateC2EPS1_@Base 2.1.0
 _ZN6KGAPI25Drive19PermissionCreateJobC1ERK7QStringRK14QSharedPointerINS0_10PermissionEERKS5_INS_7AccountEEP7QObject@Base 2.1.0
 _ZN6KGAPI25Drive19PermissionCreateJobC1ERK7QStringRK5QListI14QSharedPointerINS0_10PermissionEEERKS6_INS_7AccountEEP7QObject@Base 2.1.0
 _ZN6KGAPI25Drive19PermissionCreateJobC2ERK7QStringRK14QSharedPointerINS0_10PermissionEERKS5_INS_7AccountEEP7QObject@Base 2.1.0
 _ZN6KGAPI25Drive19PermissionCreateJobC2ERK7QStringRK5QListI14QSharedPointerINS0_10PermissionEEERKS6_INS_7AccountEEP7QObject@Base 2.1.0
 _ZN6KGAPI25Drive19PermissionCreateJobD0Ev@Base 2.1.0
 _ZN6KGAPI25Drive19PermissionCreateJobD1Ev@Base 2.1.0
 _ZN6KGAPI25Drive19PermissionCreateJobD2Ev@Base 2.1.0
 _ZN6KGAPI25Drive19PermissionDeleteJob11qt_metacallEN11QMetaObject4CallEiPPv@Base 2.1.0
 _ZN6KGAPI25Drive19PermissionDeleteJob11qt_metacastEPKc@Base 2.1.0
 _ZN6KGAPI25Drive19PermissionDeleteJob16staticMetaObjectE@Base 2.1.0
 _ZN6KGAPI25Drive19PermissionDeleteJob5startEv@Base 2.1.0
 _ZN6KGAPI25Drive19PermissionDeleteJobC1ERK7QStringRK11QStringListRK14QSharedPointerINS_7AccountEEP7QObject@Base 2.1.0
 _ZN6KGAPI25Drive19PermissionDeleteJobC1ERK7QStringRK14QSharedPointerINS0_10PermissionEERKS5_INS_7AccountEEP7QObject@Base 2.1.0
 _ZN6KGAPI25Drive19PermissionDeleteJobC1ERK7QStringRK5QListI14QSharedPointerINS0_10PermissionEEERKS6_INS_7AccountEEP7QObject@Base 2.1.0
 _ZN6KGAPI25Drive19PermissionDeleteJobC1ERK7QStringS4_RK14QSharedPointerINS_7AccountEEP7QObject@Base 2.1.0
 _ZN6KGAPI25Drive19PermissionDeleteJobC2ERK7QStringRK11QStringListRK14QSharedPointerINS_7AccountEEP7QObject@Base 2.1.0
 _ZN6KGAPI25Drive19PermissionDeleteJobC2ERK7QStringRK14QSharedPointerINS0_10PermissionEERKS5_INS_7AccountEEP7QObject@Base 2.1.0
 _ZN6KGAPI25Drive19PermissionDeleteJobC2ERK7QStringRK5QListI14QSharedPointerINS0_10PermissionEEERKS6_INS_7AccountEEP7QObject@Base 2.1.0
 _ZN6KGAPI25Drive19PermissionDeleteJobC2ERK7QStringS4_RK14QSharedPointerINS_7AccountEEP7QObject@Base 2.1.0
 _ZN6KGAPI25Drive19PermissionDeleteJobD0Ev@Base 2.1.0
 _ZN6KGAPI25Drive19PermissionDeleteJobD1Ev@Base 2.1.0
 _ZN6KGAPI25Drive19PermissionDeleteJobD2Ev@Base 2.1.0
 _ZN6KGAPI25Drive19PermissionModifyJob11qt_metacallEN11QMetaObject4CallEiPPv@Base 2.1.0
 _ZN6KGAPI25Drive19PermissionModifyJob11qt_metacastEPKc@Base 2.1.0
 _ZN6KGAPI25Drive19PermissionModifyJob16staticMetaObjectE@Base 2.1.0
 _ZN6KGAPI25Drive19PermissionModifyJob20handleReplyWithItemsEPK13QNetworkReplyRK10QByteArray@Base 2.1.0
 _ZN6KGAPI25Drive19PermissionModifyJob5startEv@Base 2.1.0
 _ZN6KGAPI25Drive19PermissionModifyJob7Private11processNextEv@Base 2.1.0
 _ZN6KGAPI25Drive19PermissionModifyJob7PrivateC1EPS1_@Base 2.1.0
 _ZN6KGAPI25Drive19PermissionModifyJob7PrivateC2EPS1_@Base 2.1.0
 _ZN6KGAPI25Drive19PermissionModifyJobC1ERK7QStringRK14QSharedPointerINS0_10PermissionEERKS5_INS_7AccountEEP7QObject@Base 2.1.0
 _ZN6KGAPI25Drive19PermissionModifyJobC1ERK7QStringRK5QListI14QSharedPointerINS0_10PermissionEEERKS6_INS_7AccountEEP7QObject@Base 2.1.0
 _ZN6KGAPI25Drive19PermissionModifyJobC2ERK7QStringRK14QSharedPointerINS0_10PermissionEERKS5_INS_7AccountEEP7QObject@Base 2.1.0
 _ZN6KGAPI25Drive19PermissionModifyJobC2ERK7QStringRK5QListI14QSharedPointerINS0_10PermissionEEERKS6_INS_7AccountEEP7QObject@Base 2.1.0
 _ZN6KGAPI25Drive19PermissionModifyJobD0Ev@Base 2.1.0
 _ZN6KGAPI25Drive19PermissionModifyJobD1Ev@Base 2.1.0
 _ZN6KGAPI25Drive19PermissionModifyJobD2Ev@Base 2.1.0
 _ZN6KGAPI25Drive21FileAbstractModifyJob11qt_metacallEN11QMetaObject4CallEiPPv@Base 2.1.0
 _ZN6KGAPI25Drive21FileAbstractModifyJob11qt_metacastEPKc@Base 2.1.0
 _ZN6KGAPI25Drive21FileAbstractModifyJob16staticMetaObjectE@Base 2.1.0
 _ZN6KGAPI25Drive21FileAbstractModifyJob20handleReplyWithItemsEPK13QNetworkReplyRK10QByteArray@Base 2.1.0
 _ZN6KGAPI25Drive21FileAbstractModifyJob5startEv@Base 2.1.0
 _ZN6KGAPI25Drive21FileAbstractModifyJob7Private11processNextEv@Base 2.1.0
 _ZN6KGAPI25Drive21FileAbstractModifyJob7PrivateC1EPS1_@Base 2.1.0
 _ZN6KGAPI25Drive21FileAbstractModifyJob7PrivateC2EPS1_@Base 2.1.0
 _ZN6KGAPI25Drive21FileAbstractModifyJobC1ERK11QStringListRK14QSharedPointerINS_7AccountEEP7QObject@Base 2.1.0
 _ZN6KGAPI25Drive21FileAbstractModifyJobC1ERK14QSharedPointerINS0_4FileEERKS2_INS_7AccountEEP7QObject@Base 2.1.0
 _ZN6KGAPI25Drive21FileAbstractModifyJobC1ERK5QListI14QSharedPointerINS0_4FileEEERKS3_INS_7AccountEEP7QObject@Base 2.1.0
 _ZN6KGAPI25Drive21FileAbstractModifyJobC1ERK7QStringRK14QSharedPointerINS_7AccountEEP7QObject@Base 2.1.0
 _ZN6KGAPI25Drive21FileAbstractModifyJobC2ERK11QStringListRK14QSharedPointerINS_7AccountEEP7QObject@Base 2.1.0
 _ZN6KGAPI25Drive21FileAbstractModifyJobC2ERK14QSharedPointerINS0_4FileEERKS2_INS_7AccountEEP7QObject@Base 2.1.0
 _ZN6KGAPI25Drive21FileAbstractModifyJobC2ERK5QListI14QSharedPointerINS0_4FileEEERKS3_INS_7AccountEEP7QObject@Base 2.1.0
 _ZN6KGAPI25Drive21FileAbstractModifyJobC2ERK7QStringRK14QSharedPointerINS_7AccountEEP7QObject@Base 2.1.0
 _ZN6KGAPI25Drive21FileAbstractModifyJobD0Ev@Base 2.1.0
 _ZN6KGAPI25Drive21FileAbstractModifyJobD1Ev@Base 2.1.0
 _ZN6KGAPI25Drive21FileAbstractModifyJobD2Ev@Base 2.1.0
 _ZN6KGAPI25Drive21FileAbstractUploadJob11handleReplyEPK13QNetworkReplyRK10QByteArray@Base 2.1.0
 _ZN6KGAPI25Drive21FileAbstractUploadJob11qt_metacallEN11QMetaObject4CallEiPPv@Base 2.1.0
 _ZN6KGAPI25Drive21FileAbstractUploadJob11qt_metacastEPKc@Base 2.1.0
 _ZN6KGAPI25Drive21FileAbstractUploadJob15dispatchRequestEP21QNetworkAccessManagerRK15QNetworkRequestRK10QByteArrayRK7QString@Base 2.1.0
 _ZN6KGAPI25Drive21FileAbstractUploadJob16staticMetaObjectE@Base 2.1.0
 _ZN6KGAPI25Drive21FileAbstractUploadJob28setUseContentAsIndexableTextEb@Base 2.1.0
 _ZN6KGAPI25Drive21FileAbstractUploadJob5startEv@Base 2.1.0
 _ZN6KGAPI25Drive21FileAbstractUploadJob7Private11processNextEv@Base 2.1.0
 _ZN6KGAPI25Drive21FileAbstractUploadJob7Private14buildMultipartERK7QStringRK14QSharedPointerINS0_4FileEERS3_@Base 2.1.0
 _ZN6KGAPI25Drive21FileAbstractUploadJob7Private17_k_uploadProgressExx@Base 2.1.0
 _ZN6KGAPI25Drive21FileAbstractUploadJob7Private8readFileERK7QStringRS3_@Base 2.1.0
 _ZN6KGAPI25Drive21FileAbstractUploadJob7PrivateC1EPS1_@Base 2.1.0
 _ZN6KGAPI25Drive21FileAbstractUploadJob7PrivateC2EPS1_@Base 2.1.0
 _ZN6KGAPI25Drive21FileAbstractUploadJobC1ERK11QStringListRK14QSharedPointerINS_7AccountEEP7QObject@Base 2.1.0
 _ZN6KGAPI25Drive21FileAbstractUploadJobC1ERK14QSharedPointerINS0_4FileEERKS2_INS_7AccountEEP7QObject@Base 2.1.0
 _ZN6KGAPI25Drive21FileAbstractUploadJobC1ERK4QMapI7QString14QSharedPointerINS0_4FileEEERKS4_INS_7AccountEEP7QObject@Base 2.1.0
 _ZN6KGAPI25Drive21FileAbstractUploadJobC1ERK5QListI14QSharedPointerINS0_4FileEEERKS3_INS_7AccountEEP7QObject@Base 2.1.0
 _ZN6KGAPI25Drive21FileAbstractUploadJobC1ERK7QStringRK14QSharedPointerINS0_4FileEERKS5_INS_7AccountEEP7QObject@Base 2.1.0
 _ZN6KGAPI25Drive21FileAbstractUploadJobC1ERK7QStringRK14QSharedPointerINS_7AccountEEP7QObject@Base 2.1.0
 _ZN6KGAPI25Drive21FileAbstractUploadJobC2ERK11QStringListRK14QSharedPointerINS_7AccountEEP7QObject@Base 2.1.0
 _ZN6KGAPI25Drive21FileAbstractUploadJobC2ERK14QSharedPointerINS0_4FileEERKS2_INS_7AccountEEP7QObject@Base 2.1.0
 _ZN6KGAPI25Drive21FileAbstractUploadJobC2ERK4QMapI7QString14QSharedPointerINS0_4FileEEERKS4_INS_7AccountEEP7QObject@Base 2.1.0
 _ZN6KGAPI25Drive21FileAbstractUploadJobC2ERK5QListI14QSharedPointerINS0_4FileEEERKS3_INS_7AccountEEP7QObject@Base 2.1.0
 _ZN6KGAPI25Drive21FileAbstractUploadJobC2ERK7QStringRK14QSharedPointerINS0_4FileEERKS5_INS_7AccountEEP7QObject@Base 2.1.0
 _ZN6KGAPI25Drive21FileAbstractUploadJobC2ERK7QStringRK14QSharedPointerINS_7AccountEEP7QObject@Base 2.1.0
 _ZN6KGAPI25Drive21FileAbstractUploadJobD0Ev@Base 2.1.0
 _ZN6KGAPI25Drive21FileAbstractUploadJobD1Ev@Base 2.1.0
 _ZN6KGAPI25Drive21FileAbstractUploadJobD2Ev@Base 2.1.0
 _ZN6KGAPI25Drive22ChildReferenceFetchJob11qt_metacallEN11QMetaObject4CallEiPPv@Base 2.1.0
 _ZN6KGAPI25Drive22ChildReferenceFetchJob11qt_metacastEPKc@Base 2.1.0
 _ZN6KGAPI25Drive22ChildReferenceFetchJob16staticMetaObjectE@Base 2.1.0
 _ZN6KGAPI25Drive22ChildReferenceFetchJob20handleReplyWithItemsEPK13QNetworkReplyRK10QByteArray@Base 2.1.0
 _ZN6KGAPI25Drive22ChildReferenceFetchJob5startEv@Base 2.1.0
 _ZN6KGAPI25Drive22ChildReferenceFetchJob7Private13createRequestERK4QUrl@Base 2.1.0
 _ZN6KGAPI25Drive22ChildReferenceFetchJob7PrivateC1EPS1_@Base 2.1.0
 _ZN6KGAPI25Drive22ChildReferenceFetchJob7PrivateC2EPS1_@Base 2.1.0
 _ZN6KGAPI25Drive22ChildReferenceFetchJobC1ERK7QStringRK14QSharedPointerINS_7AccountEEP7QObject@Base 2.1.0
 _ZN6KGAPI25Drive22ChildReferenceFetchJobC1ERK7QStringS4_RK14QSharedPointerINS_7AccountEEP7QObject@Base 2.1.0
 _ZN6KGAPI25Drive22ChildReferenceFetchJobC2ERK7QStringRK14QSharedPointerINS_7AccountEEP7QObject@Base 2.1.0
 _ZN6KGAPI25Drive22ChildReferenceFetchJobC2ERK7QStringS4_RK14QSharedPointerINS_7AccountEEP7QObject@Base 2.1.0
 _ZN6KGAPI25Drive22ChildReferenceFetchJobD0Ev@Base 2.1.0
 _ZN6KGAPI25Drive22ChildReferenceFetchJobD1Ev@Base 2.1.0
 _ZN6KGAPI25Drive22ChildReferenceFetchJobD2Ev@Base 2.1.0
 _ZN6KGAPI25Drive23ChildReferenceCreateJob11qt_metacallEN11QMetaObject4CallEiPPv@Base 2.1.0
 _ZN6KGAPI25Drive23ChildReferenceCreateJob11qt_metacastEPKc@Base 2.1.0
 _ZN6KGAPI25Drive23ChildReferenceCreateJob16staticMetaObjectE@Base 2.1.0
 _ZN6KGAPI25Drive23ChildReferenceCreateJob20handleReplyWithItemsEPK13QNetworkReplyRK10QByteArray@Base 2.1.0
 _ZN6KGAPI25Drive23ChildReferenceCreateJob5startEv@Base 2.1.0
 _ZN6KGAPI25Drive23ChildReferenceCreateJob7Private11processNextEv@Base 2.1.0
 _ZN6KGAPI25Drive23ChildReferenceCreateJob7PrivateC1EPS1_@Base 2.1.0
 _ZN6KGAPI25Drive23ChildReferenceCreateJob7PrivateC2EPS1_@Base 2.1.0
 _ZN6KGAPI25Drive23ChildReferenceCreateJobC1ERK7QStringRK11QStringListRK14QSharedPointerINS_7AccountEEP7QObject@Base 2.1.0
 _ZN6KGAPI25Drive23ChildReferenceCreateJobC1ERK7QStringRK14QSharedPointerINS0_14ChildReferenceEERKS5_INS_7AccountEEP7QObject@Base 2.1.0
 _ZN6KGAPI25Drive23ChildReferenceCreateJobC1ERK7QStringRK5QListI14QSharedPointerINS0_14ChildReferenceEEERKS6_INS_7AccountEEP7QObject@Base 2.1.0
 _ZN6KGAPI25Drive23ChildReferenceCreateJobC1ERK7QStringS4_RK14QSharedPointerINS_7AccountEEP7QObject@Base 2.1.0
 _ZN6KGAPI25Drive23ChildReferenceCreateJobC2ERK7QStringRK11QStringListRK14QSharedPointerINS_7AccountEEP7QObject@Base 2.1.0
 _ZN6KGAPI25Drive23ChildReferenceCreateJobC2ERK7QStringRK14QSharedPointerINS0_14ChildReferenceEERKS5_INS_7AccountEEP7QObject@Base 2.1.0
 _ZN6KGAPI25Drive23ChildReferenceCreateJobC2ERK7QStringRK5QListI14QSharedPointerINS0_14ChildReferenceEEERKS6_INS_7AccountEEP7QObject@Base 2.1.0
 _ZN6KGAPI25Drive23ChildReferenceCreateJobC2ERK7QStringS4_RK14QSharedPointerINS_7AccountEEP7QObject@Base 2.1.0
 _ZN6KGAPI25Drive23ChildReferenceCreateJobD0Ev@Base 2.1.0
 _ZN6KGAPI25Drive23ChildReferenceCreateJobD1Ev@Base 2.1.0
 _ZN6KGAPI25Drive23ChildReferenceCreateJobD2Ev@Base 2.1.0
 _ZN6KGAPI25Drive23ChildReferenceDeleteJob11qt_metacallEN11QMetaObject4CallEiPPv@Base 2.1.0
 _ZN6KGAPI25Drive23ChildReferenceDeleteJob11qt_metacastEPKc@Base 2.1.0
 _ZN6KGAPI25Drive23ChildReferenceDeleteJob16staticMetaObjectE@Base 2.1.0
 _ZN6KGAPI25Drive23ChildReferenceDeleteJob5startEv@Base 2.1.0
 _ZN6KGAPI25Drive23ChildReferenceDeleteJobC1ERK7QStringRK11QStringListRK14QSharedPointerINS_7AccountEEP7QObject@Base 2.1.0
 _ZN6KGAPI25Drive23ChildReferenceDeleteJobC1ERK7QStringRK14QSharedPointerINS0_14ChildReferenceEERKS5_INS_7AccountEEP7QObject@Base 2.1.0
 _ZN6KGAPI25Drive23ChildReferenceDeleteJobC1ERK7QStringRK5QListI14QSharedPointerINS0_14ChildReferenceEEERKS6_INS_7AccountEEP7QObject@Base 2.1.0
 _ZN6KGAPI25Drive23ChildReferenceDeleteJobC1ERK7QStringS4_RK14QSharedPointerINS_7AccountEEP7QObject@Base 2.1.0
 _ZN6KGAPI25Drive23ChildReferenceDeleteJobC2ERK7QStringRK11QStringListRK14QSharedPointerINS_7AccountEEP7QObject@Base 2.1.0
 _ZN6KGAPI25Drive23ChildReferenceDeleteJobC2ERK7QStringRK14QSharedPointerINS0_14ChildReferenceEERKS5_INS_7AccountEEP7QObject@Base 2.1.0
 _ZN6KGAPI25Drive23ChildReferenceDeleteJobC2ERK7QStringRK5QListI14QSharedPointerINS0_14ChildReferenceEEERKS6_INS_7AccountEEP7QObject@Base 2.1.0
 _ZN6KGAPI25Drive23ChildReferenceDeleteJobC2ERK7QStringS4_RK14QSharedPointerINS_7AccountEEP7QObject@Base 2.1.0
 _ZN6KGAPI25Drive23ChildReferenceDeleteJobD0Ev@Base 2.1.0
 _ZN6KGAPI25Drive23ChildReferenceDeleteJobD1Ev@Base 2.1.0
 _ZN6KGAPI25Drive23ChildReferenceDeleteJobD2Ev@Base 2.1.0
 _ZN6KGAPI25Drive23ParentReferenceFetchJob11qt_metacallEN11QMetaObject4CallEiPPv@Base 2.1.0
 _ZN6KGAPI25Drive23ParentReferenceFetchJob11qt_metacastEPKc@Base 2.1.0
 _ZN6KGAPI25Drive23ParentReferenceFetchJob16staticMetaObjectE@Base 2.1.0
 _ZN6KGAPI25Drive23ParentReferenceFetchJob20handleReplyWithItemsEPK13QNetworkReplyRK10QByteArray@Base 2.1.0
 _ZN6KGAPI25Drive23ParentReferenceFetchJob5startEv@Base 2.1.0
 _ZN6KGAPI25Drive23ParentReferenceFetchJobC1ERK7QStringRK14QSharedPointerINS_7AccountEEP7QObject@Base 2.1.0
 _ZN6KGAPI25Drive23ParentReferenceFetchJobC1ERK7QStringS4_RK14QSharedPointerINS_7AccountEEP7QObject@Base 2.1.0
 _ZN6KGAPI25Drive23ParentReferenceFetchJobC2ERK7QStringRK14QSharedPointerINS_7AccountEEP7QObject@Base 2.1.0
 _ZN6KGAPI25Drive23ParentReferenceFetchJobC2ERK7QStringS4_RK14QSharedPointerINS_7AccountEEP7QObject@Base 2.1.0
 _ZN6KGAPI25Drive23ParentReferenceFetchJobD0Ev@Base 2.1.0
 _ZN6KGAPI25Drive23ParentReferenceFetchJobD1Ev@Base 2.1.0
 _ZN6KGAPI25Drive23ParentReferenceFetchJobD2Ev@Base 2.1.0
 _ZN6KGAPI25Drive24ParentReferenceCreateJob11qt_metacallEN11QMetaObject4CallEiPPv@Base 2.1.0
 _ZN6KGAPI25Drive24ParentReferenceCreateJob11qt_metacastEPKc@Base 2.1.0
 _ZN6KGAPI25Drive24ParentReferenceCreateJob16staticMetaObjectE@Base 2.1.0
 _ZN6KGAPI25Drive24ParentReferenceCreateJob20handleReplyWithItemsEPK13QNetworkReplyRK10QByteArray@Base 2.1.0
 _ZN6KGAPI25Drive24ParentReferenceCreateJob5startEv@Base 2.1.0
 _ZN6KGAPI25Drive24ParentReferenceCreateJob7Private11processNextEv@Base 2.1.0
 _ZN6KGAPI25Drive24ParentReferenceCreateJob7PrivateC1EPS1_@Base 2.1.0
 _ZN6KGAPI25Drive24ParentReferenceCreateJob7PrivateC2EPS1_@Base 2.1.0
 _ZN6KGAPI25Drive24ParentReferenceCreateJobC1ERK7QStringRK11QStringListRK14QSharedPointerINS_7AccountEEP7QObject@Base 2.1.0
 _ZN6KGAPI25Drive24ParentReferenceCreateJobC1ERK7QStringRK14QSharedPointerINS0_15ParentReferenceEERKS5_INS_7AccountEEP7QObject@Base 2.1.0
 _ZN6KGAPI25Drive24ParentReferenceCreateJobC1ERK7QStringRK5QListI14QSharedPointerINS0_15ParentReferenceEEERKS6_INS_7AccountEEP7QObject@Base 2.1.0
 _ZN6KGAPI25Drive24ParentReferenceCreateJobC1ERK7QStringS4_RK14QSharedPointerINS_7AccountEEP7QObject@Base 2.1.0
 _ZN6KGAPI25Drive24ParentReferenceCreateJobC2ERK7QStringRK11QStringListRK14QSharedPointerINS_7AccountEEP7QObject@Base 2.1.0
 _ZN6KGAPI25Drive24ParentReferenceCreateJobC2ERK7QStringRK14QSharedPointerINS0_15ParentReferenceEERKS5_INS_7AccountEEP7QObject@Base 2.1.0
 _ZN6KGAPI25Drive24ParentReferenceCreateJobC2ERK7QStringRK5QListI14QSharedPointerINS0_15ParentReferenceEEERKS6_INS_7AccountEEP7QObject@Base 2.1.0
 _ZN6KGAPI25Drive24ParentReferenceCreateJobC2ERK7QStringS4_RK14QSharedPointerINS_7AccountEEP7QObject@Base 2.1.0
 _ZN6KGAPI25Drive24ParentReferenceCreateJobD0Ev@Base 2.1.0
 _ZN6KGAPI25Drive24ParentReferenceCreateJobD1Ev@Base 2.1.0
 _ZN6KGAPI25Drive24ParentReferenceCreateJobD2Ev@Base 2.1.0
 _ZN6KGAPI25Drive24ParentReferenceDeleteJob11qt_metacallEN11QMetaObject4CallEiPPv@Base 2.1.0
 _ZN6KGAPI25Drive24ParentReferenceDeleteJob11qt_metacastEPKc@Base 2.1.0
 _ZN6KGAPI25Drive24ParentReferenceDeleteJob16staticMetaObjectE@Base 2.1.0
 _ZN6KGAPI25Drive24ParentReferenceDeleteJob5startEv@Base 2.1.0
 _ZN6KGAPI25Drive24ParentReferenceDeleteJobC1ERK7QStringRK11QStringListRK14QSharedPointerINS_7AccountEEP7QObject@Base 2.1.0
 _ZN6KGAPI25Drive24ParentReferenceDeleteJobC1ERK7QStringRK14QSharedPointerINS0_15ParentReferenceEERKS5_INS_7AccountEEP7QObject@Base 2.1.0
 _ZN6KGAPI25Drive24ParentReferenceDeleteJobC1ERK7QStringRK5QListI14QSharedPointerINS0_15ParentReferenceEEERKS6_INS_7AccountEEP7QObject@Base 2.1.0
 _ZN6KGAPI25Drive24ParentReferenceDeleteJobC1ERK7QStringS4_RK14QSharedPointerINS_7AccountEEP7QObject@Base 2.1.0
 _ZN6KGAPI25Drive24ParentReferenceDeleteJobC2ERK7QStringRK11QStringListRK14QSharedPointerINS_7AccountEEP7QObject@Base 2.1.0
 _ZN6KGAPI25Drive24ParentReferenceDeleteJobC2ERK7QStringRK14QSharedPointerINS0_15ParentReferenceEERKS5_INS_7AccountEEP7QObject@Base 2.1.0
 _ZN6KGAPI25Drive24ParentReferenceDeleteJobC2ERK7QStringRK5QListI14QSharedPointerINS0_15ParentReferenceEEERKS6_INS_7AccountEEP7QObject@Base 2.1.0
 _ZN6KGAPI25Drive24ParentReferenceDeleteJobC2ERK7QStringS4_RK14QSharedPointerINS_7AccountEEP7QObject@Base 2.1.0
 _ZN6KGAPI25Drive24ParentReferenceDeleteJobD0Ev@Base 2.1.0
 _ZN6KGAPI25Drive24ParentReferenceDeleteJobD1Ev@Base 2.1.0
 _ZN6KGAPI25Drive24ParentReferenceDeleteJobD2Ev@Base 2.1.0
 _ZN6KGAPI25Drive3App12fromJSONFeedERK10QByteArray@Base 2.1.0
 _ZN6KGAPI25Drive3App4Icon7Private16categoryFromNameERK7QString@Base 2.1.0
 _ZN6KGAPI25Drive3App4Icon7PrivateC1ERKS3_@Base 2.1.0
 _ZN6KGAPI25Drive3App4Icon7PrivateC1Ev@Base 2.1.0
 _ZN6KGAPI25Drive3App4Icon7PrivateC2ERKS3_@Base 2.1.0
 _ZN6KGAPI25Drive3App4Icon7PrivateC2Ev@Base 2.1.0
 _ZN6KGAPI25Drive3App4IconC1ERKS2_@Base 2.1.0
 _ZN6KGAPI25Drive3App4IconC1Ev@Base 2.1.0
 _ZN6KGAPI25Drive3App4IconC2ERKS2_@Base 2.1.0
 _ZN6KGAPI25Drive3App4IconC2Ev@Base 2.1.0
 _ZN6KGAPI25Drive3App4IconD0Ev@Base 2.1.0
 _ZN6KGAPI25Drive3App4IconD1Ev@Base 2.1.0
 _ZN6KGAPI25Drive3App4IconD2Ev@Base 2.1.0
 _ZN6KGAPI25Drive3App7Private8fromJSONERK4QMapI7QString8QVariantE@Base 2.1.0
 _ZN6KGAPI25Drive3App7PrivateC1ERKS2_@Base 2.1.0
 _ZN6KGAPI25Drive3App7PrivateC1Ev@Base 2.1.0
 _ZN6KGAPI25Drive3App7PrivateC2ERKS2_@Base 2.1.0
 _ZN6KGAPI25Drive3App7PrivateC2Ev@Base 2.1.0
 _ZN6KGAPI25Drive3App8fromJSONERK10QByteArray@Base 2.1.0
 _ZN6KGAPI25Drive3AppC1ERKS1_@Base 2.1.0
 _ZN6KGAPI25Drive3AppC1Ev@Base 2.1.0
 _ZN6KGAPI25Drive3AppC2ERKS1_@Base 2.1.0
 _ZN6KGAPI25Drive3AppC2Ev@Base 2.1.0
 _ZN6KGAPI25Drive3AppD0Ev@Base 2.1.0
 _ZN6KGAPI25Drive3AppD1Ev@Base 2.1.0
 _ZN6KGAPI25Drive3AppD2Ev@Base 2.1.0
 _ZN6KGAPI25Drive4File10setParentsERK5QListI14QSharedPointerINS0_15ParentReferenceEEE@Base 2.1.0
 _ZN6KGAPI25Drive4File11setMimeTypeERK7QString@Base 2.1.0
 _ZN6KGAPI25Drive4File12fromJSONFeedERK10QByteArrayRNS_8FeedDataE@Base 2.1.0
 _ZN6KGAPI25Drive4File13IndexableText7PrivateC1ERKS3_@Base 2.1.0
 _ZN6KGAPI25Drive4File13IndexableText7PrivateC1Ev@Base 2.1.0
 _ZN6KGAPI25Drive4File13IndexableText7PrivateC2ERKS3_@Base 2.1.0
 _ZN6KGAPI25Drive4File13IndexableText7PrivateC2Ev@Base 2.1.0
 _ZN6KGAPI25Drive4File13IndexableText7setTextERK7QString@Base 2.1.0
 _ZN6KGAPI25Drive4File13IndexableTextC1ERKS2_@Base 2.1.0
 _ZN6KGAPI25Drive4File13IndexableTextC1Ev@Base 2.1.0
 _ZN6KGAPI25Drive4File13IndexableTextC2ERKS2_@Base 2.1.0
 _ZN6KGAPI25Drive4File13IndexableTextC2Ev@Base 2.1.0
 _ZN6KGAPI25Drive4File13IndexableTextD0Ev@Base 2.1.0
 _ZN6KGAPI25Drive4File13IndexableTextD1Ev@Base 2.1.0
 _ZN6KGAPI25Drive4File13IndexableTextD2Ev@Base 2.1.0
 _ZN6KGAPI25Drive4File13indexableTextEv@Base 2.1.0
 _ZN6KGAPI25Drive4File14folderMimeTypeEv@Base 2.1.0
 _ZN6KGAPI25Drive4File14setDescriptionERK7QString@Base 2.1.0
 _ZN6KGAPI25Drive4File15setModifiedDateERK9KDateTime@Base 2.1.0
 _ZN6KGAPI25Drive4File18ImageMediaMetadata7PrivateC1ERKS3_@Base 2.1.0
 _ZN6KGAPI25Drive4File18ImageMediaMetadata7PrivateC1Ev@Base 2.1.0
 _ZN6KGAPI25Drive4File18ImageMediaMetadata7PrivateC2ERKS3_@Base 2.1.0
 _ZN6KGAPI25Drive4File18ImageMediaMetadata7PrivateC2Ev@Base 2.1.0
 _ZN6KGAPI25Drive4File18ImageMediaMetadata8Location7PrivateC1ERKS4_@Base 2.1.0
 _ZN6KGAPI25Drive4File18ImageMediaMetadata8Location7PrivateC1Ev@Base 2.1.0
 _ZN6KGAPI25Drive4File18ImageMediaMetadata8Location7PrivateC2ERKS4_@Base 2.1.0
 _ZN6KGAPI25Drive4File18ImageMediaMetadata8Location7PrivateC2Ev@Base 2.1.0
 _ZN6KGAPI25Drive4File18ImageMediaMetadata8LocationC1ERKS3_@Base 2.1.0
 _ZN6KGAPI25Drive4File18ImageMediaMetadata8LocationC1Ev@Base 2.1.0
 _ZN6KGAPI25Drive4File18ImageMediaMetadata8LocationC2ERKS3_@Base 2.1.0
 _ZN6KGAPI25Drive4File18ImageMediaMetadata8LocationC2Ev@Base 2.1.0
 _ZN6KGAPI25Drive4File18ImageMediaMetadata8LocationD0Ev@Base 2.1.0
 _ZN6KGAPI25Drive4File18ImageMediaMetadata8LocationD1Ev@Base 2.1.0
 _ZN6KGAPI25Drive4File18ImageMediaMetadata8LocationD2Ev@Base 2.1.0
 _ZN6KGAPI25Drive4File18ImageMediaMetadataC1ERK4QMapI7QString8QVariantE@Base 2.1.0
 _ZN6KGAPI25Drive4File18ImageMediaMetadataC1ERKS2_@Base 2.1.0
 _ZN6KGAPI25Drive4File18ImageMediaMetadataC2ERK4QMapI7QString8QVariantE@Base 2.1.0
 _ZN6KGAPI25Drive4File18ImageMediaMetadataC2ERKS2_@Base 2.1.0
 _ZN6KGAPI25Drive4File18ImageMediaMetadataD0Ev@Base 2.1.0
 _ZN6KGAPI25Drive4File18ImageMediaMetadataD1Ev@Base 2.1.0
 _ZN6KGAPI25Drive4File18ImageMediaMetadataD2Ev@Base 2.1.0
 _ZN6KGAPI25Drive4File21setLastViewedByMeDateERK9KDateTime@Base 2.1.0
 _ZN6KGAPI25Drive4File6Labels10setStarredEb@Base 2.1.0
 _ZN6KGAPI25Drive4File6Labels10setTrashedEb@Base 2.1.0
 _ZN6KGAPI25Drive4File6Labels13setRestrictedEb@Base 2.1.0
 _ZN6KGAPI25Drive4File6Labels7PrivateC1ERKS3_@Base 2.1.0
 _ZN6KGAPI25Drive4File6Labels7PrivateC1Ev@Base 2.1.0
 _ZN6KGAPI25Drive4File6Labels7PrivateC2ERKS3_@Base 2.1.0
 _ZN6KGAPI25Drive4File6Labels7PrivateC2Ev@Base 2.1.0
 _ZN6KGAPI25Drive4File6Labels9setHiddenEb@Base 2.1.0
 _ZN6KGAPI25Drive4File6Labels9setViewedEb@Base 2.1.0
 _ZN6KGAPI25Drive4File6LabelsC1ERKS2_@Base 2.1.0
 _ZN6KGAPI25Drive4File6LabelsC1Ev@Base 2.1.0
 _ZN6KGAPI25Drive4File6LabelsC2ERKS2_@Base 2.1.0
 _ZN6KGAPI25Drive4File6LabelsC2Ev@Base 2.1.0
 _ZN6KGAPI25Drive4File6LabelsD0Ev@Base 2.1.0
 _ZN6KGAPI25Drive4File6LabelsD1Ev@Base 2.1.0
 _ZN6KGAPI25Drive4File6LabelsD2Ev@Base 2.1.0
 _ZN6KGAPI25Drive4File6toJSONERK14QSharedPointerIS1_E@Base 2.1.0
 _ZN6KGAPI25Drive4File7Private8fromJSONERK4QMapI7QString8QVariantE@Base 2.1.0
 _ZN6KGAPI25Drive4File7PrivateC1ERKS2_@Base 2.1.0
 _ZN6KGAPI25Drive4File7PrivateC1Ev@Base 2.1.0
 _ZN6KGAPI25Drive4File7PrivateC2ERKS2_@Base 2.1.0
 _ZN6KGAPI25Drive4File7PrivateC2Ev@Base 2.1.0
 _ZN6KGAPI25Drive4File8fromJSONERK10QByteArray@Base 2.1.0
 _ZN6KGAPI25Drive4File8fromJSONERK4QMapI7QString8QVariantE@Base 2.1.0
 _ZN6KGAPI25Drive4File8setTitleERK7QString@Base 2.1.0
 _ZN6KGAPI25Drive4File9Thumbnail7PrivateC1ERKS3_@Base 2.1.0
 _ZN6KGAPI25Drive4File9Thumbnail7PrivateC1Ev@Base 2.1.0
 _ZN6KGAPI25Drive4File9Thumbnail7PrivateC2ERKS3_@Base 2.1.0
 _ZN6KGAPI25Drive4File9Thumbnail7PrivateC2Ev@Base 2.1.0
 _ZN6KGAPI25Drive4File9ThumbnailC1ERK4QMapI7QString8QVariantE@Base 2.1.0
 _ZN6KGAPI25Drive4File9ThumbnailC1ERKS2_@Base 2.1.0
 _ZN6KGAPI25Drive4File9ThumbnailC2ERK4QMapI7QString8QVariantE@Base 2.1.0
 _ZN6KGAPI25Drive4File9ThumbnailC2ERKS2_@Base 2.1.0
 _ZN6KGAPI25Drive4File9ThumbnailD0Ev@Base 2.1.0
 _ZN6KGAPI25Drive4File9ThumbnailD1Ev@Base 2.1.0
 _ZN6KGAPI25Drive4File9ThumbnailD2Ev@Base 2.1.0
 _ZN6KGAPI25Drive4File9setLabelsERK14QSharedPointerINS1_6LabelsEE@Base 2.1.0
 _ZN6KGAPI25Drive4FileC1ERKS1_@Base 2.1.0
 _ZN6KGAPI25Drive4FileC1Ev@Base 2.1.0
 _ZN6KGAPI25Drive4FileC2ERKS1_@Base 2.1.0
 _ZN6KGAPI25Drive4FileC2Ev@Base 2.1.0
 _ZN6KGAPI25Drive4FileD0Ev@Base 2.1.0
 _ZN6KGAPI25Drive4FileD1Ev@Base 2.1.0
 _ZN6KGAPI25Drive4FileD2Ev@Base 2.1.0
 _ZN6KGAPI25Drive4User7PrivateC1ERKS2_@Base 2.1.0
 _ZN6KGAPI25Drive4User7PrivateC1Ev@Base 2.1.0
 _ZN6KGAPI25Drive4User7PrivateC2ERKS2_@Base 2.1.0
 _ZN6KGAPI25Drive4User7PrivateC2Ev@Base 2.1.0
 _ZN6KGAPI25Drive4User8fromJSONERK4QMapI7QString8QVariantE@Base 2.1.0
 _ZN6KGAPI25Drive4UserC1ERKS1_@Base 2.1.0
 _ZN6KGAPI25Drive4UserC1Ev@Base 2.1.0
 _ZN6KGAPI25Drive4UserC2ERKS1_@Base 2.1.0
 _ZN6KGAPI25Drive4UserC2Ev@Base 2.1.0
 _ZN6KGAPI25Drive4UserD0Ev@Base 2.1.0
 _ZN6KGAPI25Drive4UserD1Ev@Base 2.1.0
 _ZN6KGAPI25Drive4UserD2Ev@Base 2.1.0
 _ZN6KGAPI25Drive5About13MaxUploadSize7PrivateC1ERKS3_@Base 2.1.0
 _ZN6KGAPI25Drive5About13MaxUploadSize7PrivateC1Ev@Base 2.1.0
 _ZN6KGAPI25Drive5About13MaxUploadSize7PrivateC2ERKS3_@Base 2.1.0
 _ZN6KGAPI25Drive5About13MaxUploadSize7PrivateC2Ev@Base 2.1.0
 _ZN6KGAPI25Drive5About13MaxUploadSizeC1ERKS2_@Base 2.1.0
 _ZN6KGAPI25Drive5About13MaxUploadSizeC1Ev@Base 2.1.0
 _ZN6KGAPI25Drive5About13MaxUploadSizeC2ERKS2_@Base 2.1.0
 _ZN6KGAPI25Drive5About13MaxUploadSizeC2Ev@Base 2.1.0
 _ZN6KGAPI25Drive5About13MaxUploadSizeD0Ev@Base 2.1.0
 _ZN6KGAPI25Drive5About13MaxUploadSizeD1Ev@Base 2.1.0
 _ZN6KGAPI25Drive5About13MaxUploadSizeD2Ev@Base 2.1.0
 _ZN6KGAPI25Drive5About18AdditionalRoleInfo7PrivateC1ERKS3_@Base 2.1.0
 _ZN6KGAPI25Drive5About18AdditionalRoleInfo7PrivateC1Ev@Base 2.1.0
 _ZN6KGAPI25Drive5About18AdditionalRoleInfo7PrivateC2ERKS3_@Base 2.1.0
 _ZN6KGAPI25Drive5About18AdditionalRoleInfo7PrivateC2Ev@Base 2.1.0
 _ZN6KGAPI25Drive5About18AdditionalRoleInfo7RoleSet7PrivateC1ERKS4_@Base 2.1.0
 _ZN6KGAPI25Drive5About18AdditionalRoleInfo7RoleSet7PrivateC1Ev@Base 2.1.0
 _ZN6KGAPI25Drive5About18AdditionalRoleInfo7RoleSet7PrivateC2ERKS4_@Base 2.1.0
 _ZN6KGAPI25Drive5About18AdditionalRoleInfo7RoleSet7PrivateC2Ev@Base 2.1.0
 _ZN6KGAPI25Drive5About18AdditionalRoleInfo7RoleSetC1ERKS3_@Base 2.1.0
 _ZN6KGAPI25Drive5About18AdditionalRoleInfo7RoleSetC1Ev@Base 2.1.0
 _ZN6KGAPI25Drive5About18AdditionalRoleInfo7RoleSetC2ERKS3_@Base 2.1.0
 _ZN6KGAPI25Drive5About18AdditionalRoleInfo7RoleSetC2Ev@Base 2.1.0
 _ZN6KGAPI25Drive5About18AdditionalRoleInfo7RoleSetD0Ev@Base 2.1.0
 _ZN6KGAPI25Drive5About18AdditionalRoleInfo7RoleSetD1Ev@Base 2.1.0
 _ZN6KGAPI25Drive5About18AdditionalRoleInfo7RoleSetD2Ev@Base 2.1.0
 _ZN6KGAPI25Drive5About18AdditionalRoleInfoC1ERKS2_@Base 2.1.0
 _ZN6KGAPI25Drive5About18AdditionalRoleInfoC1Ev@Base 2.1.0
 _ZN6KGAPI25Drive5About18AdditionalRoleInfoC2ERKS2_@Base 2.1.0
 _ZN6KGAPI25Drive5About18AdditionalRoleInfoC2Ev@Base 2.1.0
 _ZN6KGAPI25Drive5About18AdditionalRoleInfoD0Ev@Base 2.1.0
 _ZN6KGAPI25Drive5About18AdditionalRoleInfoD1Ev@Base 2.1.0
 _ZN6KGAPI25Drive5About18AdditionalRoleInfoD2Ev@Base 2.1.0
 _ZN6KGAPI25Drive5About6Format7PrivateC1ERKS3_@Base 2.1.0
 _ZN6KGAPI25Drive5About6Format7PrivateC1Ev@Base 2.1.0
 _ZN6KGAPI25Drive5About6Format7PrivateC2ERKS3_@Base 2.1.0
 _ZN6KGAPI25Drive5About6Format7PrivateC2Ev@Base 2.1.0
 _ZN6KGAPI25Drive5About6FormatC1ERKS2_@Base 2.1.0
 _ZN6KGAPI25Drive5About6FormatC1Ev@Base 2.1.0
 _ZN6KGAPI25Drive5About6FormatC2ERKS2_@Base 2.1.0
 _ZN6KGAPI25Drive5About6FormatC2Ev@Base 2.1.0
 _ZN6KGAPI25Drive5About6FormatD0Ev@Base 2.1.0
 _ZN6KGAPI25Drive5About6FormatD1Ev@Base 2.1.0
 _ZN6KGAPI25Drive5About6FormatD2Ev@Base 2.1.0
 _ZN6KGAPI25Drive5About7Feature7PrivateC1ERKS3_@Base 2.1.0
 _ZN6KGAPI25Drive5About7Feature7PrivateC1Ev@Base 2.1.0
 _ZN6KGAPI25Drive5About7Feature7PrivateC2ERKS3_@Base 2.1.0
 _ZN6KGAPI25Drive5About7Feature7PrivateC2Ev@Base 2.1.0
 _ZN6KGAPI25Drive5About7FeatureC1ERKS2_@Base 2.1.0
 _ZN6KGAPI25Drive5About7FeatureC1Ev@Base 2.1.0
 _ZN6KGAPI25Drive5About7FeatureC2ERKS2_@Base 2.1.0
 _ZN6KGAPI25Drive5About7FeatureC2Ev@Base 2.1.0
 _ZN6KGAPI25Drive5About7FeatureD0Ev@Base 2.1.0
 _ZN6KGAPI25Drive5About7FeatureD1Ev@Base 2.1.0
 _ZN6KGAPI25Drive5About7FeatureD2Ev@Base 2.1.0
 _ZN6KGAPI25Drive5About7PrivateC1ERKS2_@Base 2.1.0
 _ZN6KGAPI25Drive5About7PrivateC1Ev@Base 2.1.0
 _ZN6KGAPI25Drive5About7PrivateC2ERKS2_@Base 2.1.0
 _ZN6KGAPI25Drive5About7PrivateC2Ev@Base 2.1.0
 _ZN6KGAPI25Drive5About8fromJSONERK10QByteArray@Base 2.1.0
 _ZN6KGAPI25Drive5AboutC1ERKS1_@Base 2.1.0
 _ZN6KGAPI25Drive5AboutC1Ev@Base 2.1.0
 _ZN6KGAPI25Drive5AboutC2ERKS1_@Base 2.1.0
 _ZN6KGAPI25Drive5AboutC2Ev@Base 2.1.0
 _ZN6KGAPI25Drive5AboutD0Ev@Base 2.1.0
 _ZN6KGAPI25Drive5AboutD1Ev@Base 2.1.0
 _ZN6KGAPI25Drive5AboutD2Ev@Base 2.1.0
 _ZN6KGAPI25Drive6Change12fromJSONFeedERK10QByteArrayRNS_8FeedDataE@Base 2.1.0
 _ZN6KGAPI25Drive6Change7Private8fromJSONERK4QMapI7QString8QVariantE@Base 2.1.0
 _ZN6KGAPI25Drive6Change7PrivateC1ERKS2_@Base 2.1.0
 _ZN6KGAPI25Drive6Change7PrivateC1Ev@Base 2.1.0
 _ZN6KGAPI25Drive6Change7PrivateC2ERKS2_@Base 2.1.0
 _ZN6KGAPI25Drive6Change7PrivateC2Ev@Base 2.1.0
 _ZN6KGAPI25Drive6Change8fromJSONERK10QByteArray@Base 2.1.0
 _ZN6KGAPI25Drive6ChangeC1ERKS1_@Base 2.1.0
 _ZN6KGAPI25Drive6ChangeC1Ev@Base 2.1.0
 _ZN6KGAPI25Drive6ChangeC2ERKS1_@Base 2.1.0
 _ZN6KGAPI25Drive6ChangeC2Ev@Base 2.1.0
 _ZN6KGAPI25Drive6ChangeD0Ev@Base 2.1.0
 _ZN6KGAPI25Drive6ChangeD1Ev@Base 2.1.0
 _ZN6KGAPI25Drive6ChangeD2Ev@Base 2.1.0
 _ZN6KGAPI25Drive8Revision12fromJSONFeedERK10QByteArray@Base 2.1.0
 _ZN6KGAPI25Drive8Revision12setPublishedEb@Base 2.1.0
 _ZN6KGAPI25Drive8Revision14setPublishAutoEb@Base 2.1.0
 _ZN6KGAPI25Drive8Revision25setPublishedOutsideDomainEb@Base 2.1.0
 _ZN6KGAPI25Drive8Revision6toJSONERK14QSharedPointerIS1_E@Base 2.1.0
 _ZN6KGAPI25Drive8Revision7Private8fromJSONERK4QMapI7QString8QVariantE@Base 2.1.0
 _ZN6KGAPI25Drive8Revision7PrivateC1ERKS2_@Base 2.1.0
 _ZN6KGAPI25Drive8Revision7PrivateC1Ev@Base 2.1.0
 _ZN6KGAPI25Drive8Revision7PrivateC2ERKS2_@Base 2.1.0
 _ZN6KGAPI25Drive8Revision7PrivateC2Ev@Base 2.1.0
 _ZN6KGAPI25Drive8Revision8fromJSONERK10QByteArray@Base 2.1.0
 _ZN6KGAPI25Drive8Revision9setPinnedEb@Base 2.1.0
 _ZN6KGAPI25Drive8RevisionC1ERKS1_@Base 2.1.0
 _ZN6KGAPI25Drive8RevisionC1Ev@Base 2.1.0
 _ZN6KGAPI25Drive8RevisionC2ERKS1_@Base 2.1.0
 _ZN6KGAPI25Drive8RevisionC2Ev@Base 2.1.0
 _ZN6KGAPI25Drive8RevisionD0Ev@Base 2.1.0
 _ZN6KGAPI25Drive8RevisionD1Ev@Base 2.1.0
 _ZN6KGAPI25Drive8RevisionD2Ev@Base 2.1.0
 _ZN6KGAPI25Event10setDeletedEb@Base 2.0.1
 _ZN6KGAPI25Event22setUseDefaultRemindersEb@Base 2.0.1
 _ZN6KGAPI25Event7PrivateC1ERKS1_@Base 2.0.1
 _ZN6KGAPI25Event7PrivateC1Ev@Base 2.0.1
 _ZN6KGAPI25Event7PrivateC2ERKS1_@Base 2.0.1
 _ZN6KGAPI25Event7PrivateC2Ev@Base 2.0.1
 _ZN6KGAPI25EventC1ERKN8KCalCore5EventE@Base 2.0.1
 _ZN6KGAPI25EventC1ERKS0_@Base 2.0.1
 _ZN6KGAPI25EventC1Ev@Base 2.0.1
 _ZN6KGAPI25EventC2ERKN8KCalCore5EventE@Base 2.0.1
 _ZN6KGAPI25EventC2ERKS0_@Base 2.0.1
 _ZN6KGAPI25EventC2Ev@Base 2.0.1
 _ZN6KGAPI25EventD0Ev@Base 2.0.1
 _ZN6KGAPI25EventD1Ev@Base 2.0.1
 _ZN6KGAPI25EventD2Ev@Base 2.0.1
 _ZN6KGAPI26Object7PrivateC1ERKS1_@Base 2.0.1
 _ZN6KGAPI26Object7PrivateC1Ev@Base 2.0.1
 _ZN6KGAPI26Object7PrivateC2ERKS1_@Base 2.0.1
 _ZN6KGAPI26Object7PrivateC2Ev@Base 2.0.1
 _ZN6KGAPI26Object7setEtagERK7QString@Base 2.0.1
 _ZN6KGAPI26ObjectC1ERKS0_@Base 2.0.1
 _ZN6KGAPI26ObjectC1Ev@Base 2.0.1
 _ZN6KGAPI26ObjectC2ERKS0_@Base 2.0.1
 _ZN6KGAPI26ObjectC2Ev@Base 2.0.1
 _ZN6KGAPI26ObjectD0Ev@Base 2.0.1
 _ZN6KGAPI26ObjectD1Ev@Base 2.0.1
 _ZN6KGAPI26ObjectD2Ev@Base 2.0.1
 _ZN6KGAPI27Account11removeScopeERK4QUrl@Base 2.0.1
 _ZN6KGAPI27Account13tasksScopeUrlEv@Base 2.0.1
 _ZN6KGAPI27Account14setAccessTokenERK7QString@Base 2.0.1
 _ZN6KGAPI27Account14setAccountNameERK7QString@Base 2.0.1
 _ZN6KGAPI27Account15bloggerScopeUrlEv@Base 2.1.80
 _ZN6KGAPI27Account15setRefreshTokenERK7QString@Base 2.0.1
 _ZN6KGAPI27Account16calendarScopeUrlEv@Base 2.0.1
 _ZN6KGAPI27Account16contactsScopeUrlEv@Base 2.0.1
 _ZN6KGAPI27Account16latitudeScopeUrlEv@Base 2.0.1
 _ZN6KGAPI27Account17setExpireDateTimeERK9QDateTime@Base 2.1.0
 _ZN6KGAPI27Account19accountInfoScopeUrlEv@Base 2.0.1
 _ZN6KGAPI27Account24accountInfoEmailScopeUrlEv@Base 2.0.1
 _ZN6KGAPI27Account7PrivateC1ERKS1_@Base 2.0.1
 _ZN6KGAPI27Account7PrivateC1Ev@Base 2.0.1
 _ZN6KGAPI27Account7PrivateC2ERKS1_@Base 2.0.1
 _ZN6KGAPI27Account7PrivateC2Ev@Base 2.0.1
 _ZN6KGAPI27Account8addScopeERK4QUrl@Base 2.0.1
 _ZN6KGAPI27Account9setScopesERK5QListI4QUrlE@Base 2.0.1
 _ZN6KGAPI27AccountC1ERK7QStringS3_S3_RK5QListI4QUrlE@Base 2.0.1
 _ZN6KGAPI27AccountC1ERKS0_@Base 2.0.1
 _ZN6KGAPI27AccountC1Ev@Base 2.0.1
 _ZN6KGAPI27AccountC2ERK7QStringS3_S3_RK5QListI4QUrlE@Base 2.0.1
 _ZN6KGAPI27AccountC2ERKS0_@Base 2.0.1
 _ZN6KGAPI27AccountC2Ev@Base 2.0.1
 _ZN6KGAPI27AccountD0Ev@Base 2.0.1
 _ZN6KGAPI27AccountD1Ev@Base 2.0.1
 _ZN6KGAPI27AccountD2Ev@Base 2.0.1
 _ZN6KGAPI27AuthJob11handleReplyEPK13QNetworkReplyRK10QByteArray@Base 2.0.1
 _ZN6KGAPI27AuthJob11qt_metacallEN11QMetaObject4CallEiPPv@Base 2.0.1
 _ZN6KGAPI27AuthJob11qt_metacastEPKc@Base 2.0.1
 _ZN6KGAPI27AuthJob11setPasswordERK7QString@Base 2.1.1
 _ZN6KGAPI27AuthJob11setUsernameERK7QString@Base 2.1.1
 _ZN6KGAPI27AuthJob15dispatchRequestEP21QNetworkAccessManagerRK15QNetworkRequestRK10QByteArrayRK7QString@Base 2.0.1
 _ZN6KGAPI27AuthJob16staticMetaObjectE@Base 2.0.1
 _ZN6KGAPI27AuthJob5startEv@Base 2.0.1
 _ZN6KGAPI27AuthJob7Private13refreshTokensEv@Base 2.0.1
 _ZN6KGAPI27AuthJob7Private18fullAuthenticationEv@Base 2.0.1
 _ZN6KGAPI27AuthJob7Private27_k_fullAuthenticationFailedENS_5ErrorERK7QString@Base 2.0.1
 _ZN6KGAPI27AuthJob7Private29_k_fullAuthenticationFinishedERK14QSharedPointerINS_7AccountEE@Base 2.0.1
 _ZN6KGAPI27AuthJob7PrivateC1EPS0_@Base 2.0.1
 _ZN6KGAPI27AuthJob7PrivateC2EPS0_@Base 2.0.1
 _ZN6KGAPI27AuthJobC1ERK14QSharedPointerINS_7AccountEERK7QStringS8_P7QObject@Base 2.0.1
 _ZN6KGAPI27AuthJobC1ERK14QSharedPointerINS_7AccountEERK7QStringS8_P7QWidget@Base 2.0.1
 _ZN6KGAPI27AuthJobC2ERK14QSharedPointerINS_7AccountEERK7QStringS8_P7QObject@Base 2.0.1
 _ZN6KGAPI27AuthJobC2ERK14QSharedPointerINS_7AccountEERK7QStringS8_P7QWidget@Base 2.0.1
 _ZN6KGAPI27AuthJobD0Ev@Base 2.0.1
 _ZN6KGAPI27AuthJobD1Ev@Base 2.0.1
 _ZN6KGAPI27AuthJobD2Ev@Base 2.0.1
 _ZN6KGAPI27Blogger12BlogFetchJob11qt_metacallEN11QMetaObject4CallEiPPv@Base 2.1.80
 _ZN6KGAPI27Blogger12BlogFetchJob11qt_metacastEPKc@Base 2.1.80
 _ZN6KGAPI27Blogger12BlogFetchJob16staticMetaObjectE@Base 2.1.80
 _ZN6KGAPI27Blogger12BlogFetchJob20handleReplyWithItemsEPK13QNetworkReplyRK10QByteArray@Base 2.1.80
 _ZN6KGAPI27Blogger12BlogFetchJob5startEv@Base 2.1.80
 _ZN6KGAPI27Blogger12BlogFetchJob7PrivateC1ERK7QStringNS1_7FetchByE@Base 2.1.80
 _ZN6KGAPI27Blogger12BlogFetchJob7PrivateC2ERK7QStringNS1_7FetchByE@Base 2.1.80
 _ZN6KGAPI27Blogger12BlogFetchJob7PrivateD1Ev@Base 2.1.80
 _ZN6KGAPI27Blogger12BlogFetchJob7PrivateD2Ev@Base 2.1.80
 _ZN6KGAPI27Blogger12BlogFetchJobC1ERK7QStringNS1_7FetchByERK14QSharedPointerINS_7AccountEEP7QObject@Base 2.1.80
 _ZN6KGAPI27Blogger12BlogFetchJobC2ERK7QStringNS1_7FetchByERK14QSharedPointerINS_7AccountEEP7QObject@Base 2.1.80
 _ZN6KGAPI27Blogger12BlogFetchJobD0Ev@Base 2.1.80
 _ZN6KGAPI27Blogger12BlogFetchJobD1Ev@Base 2.1.80
 _ZN6KGAPI27Blogger12BlogFetchJobD2Ev@Base 2.1.80
 _ZN6KGAPI27Blogger12PageFetchJob11qt_metacallEN11QMetaObject4CallEiPPv@Base 2.1.80
 _ZN6KGAPI27Blogger12PageFetchJob11qt_metacastEPKc@Base 2.1.80
 _ZN6KGAPI27Blogger12PageFetchJob15setFetchContentEb@Base 2.1.80
 _ZN6KGAPI27Blogger12PageFetchJob15setStatusFilterE6QFlagsINS1_12StatusFilterEE@Base 2.1.80
 _ZN6KGAPI27Blogger12PageFetchJob16staticMetaObjectE@Base 2.1.80
 _ZN6KGAPI27Blogger12PageFetchJob20handleReplyWithItemsEPK13QNetworkReplyRK10QByteArray@Base 2.1.80
 _ZN6KGAPI27Blogger12PageFetchJob5startEv@Base 2.1.80
 _ZN6KGAPI27Blogger12PageFetchJob7PrivateC1ERK7QStringS5_@Base 2.1.80
 _ZN6KGAPI27Blogger12PageFetchJob7PrivateC2ERK7QStringS5_@Base 2.1.80
 _ZN6KGAPI27Blogger12PageFetchJobC1ERK7QStringRK14QSharedPointerINS_7AccountEEP7QObject@Base 2.1.80
 _ZN6KGAPI27Blogger12PageFetchJobC1ERK7QStringS4_RK14QSharedPointerINS_7AccountEEP7QObject@Base 2.1.80
 _ZN6KGAPI27Blogger12PageFetchJobC2ERK7QStringRK14QSharedPointerINS_7AccountEEP7QObject@Base 2.1.80
 _ZN6KGAPI27Blogger12PageFetchJobC2ERK7QStringS4_RK14QSharedPointerINS_7AccountEEP7QObject@Base 2.1.80
 _ZN6KGAPI27Blogger12PageFetchJobD0Ev@Base 2.1.80
 _ZN6KGAPI27Blogger12PageFetchJobD1Ev@Base 2.1.80
 _ZN6KGAPI27Blogger12PageFetchJobD2Ev@Base 2.1.80
 _ZN6KGAPI27Blogger12PostFetchJob10setEndDateERK9KDateTime@Base 2.1.80
 _ZN6KGAPI27Blogger12PostFetchJob11qt_metacallEN11QMetaObject4CallEiPPv@Base 2.1.80
 _ZN6KGAPI27Blogger12PostFetchJob11qt_metacastEPKc@Base 2.1.80
 _ZN6KGAPI27Blogger12PostFetchJob12setStartDateERK9KDateTime@Base 2.1.80
 _ZN6KGAPI27Blogger12PostFetchJob13setMaxResultsEj@Base 2.1.80
 _ZN6KGAPI27Blogger12PostFetchJob14setFetchBodiesEb@Base 2.1.80
 _ZN6KGAPI27Blogger12PostFetchJob14setFetchImagesEb@Base 2.1.80
 _ZN6KGAPI27Blogger12PostFetchJob15setFilterLabelsERK11QStringList@Base 2.1.80
 _ZN6KGAPI27Blogger12PostFetchJob15setStatusFilterE6QFlagsINS1_12StatusFilterEE@Base 2.1.80
 _ZN6KGAPI27Blogger12PostFetchJob16staticMetaObjectE@Base 2.1.80
 _ZN6KGAPI27Blogger12PostFetchJob20handleReplyWithItemsEPK13QNetworkReplyRK10QByteArray@Base 2.1.80
 _ZN6KGAPI27Blogger12PostFetchJob5startEv@Base 2.1.80
 _ZN6KGAPI27Blogger12PostFetchJob7Private13createRequestERK4QUrl@Base 2.1.80
 _ZN6KGAPI27Blogger12PostFetchJob7PrivateC1ERK7QStringS5_PS1_@Base 2.1.80
 _ZN6KGAPI27Blogger12PostFetchJob7PrivateC2ERK7QStringS5_PS1_@Base 2.1.80
 _ZN6KGAPI27Blogger12PostFetchJobC1ERK7QStringRK14QSharedPointerINS_7AccountEEP7QObject@Base 2.1.80
 _ZN6KGAPI27Blogger12PostFetchJobC1ERK7QStringS4_RK14QSharedPointerINS_7AccountEEP7QObject@Base 2.1.80
 _ZN6KGAPI27Blogger12PostFetchJobC2ERK7QStringRK14QSharedPointerINS_7AccountEEP7QObject@Base 2.1.80
 _ZN6KGAPI27Blogger12PostFetchJobC2ERK7QStringS4_RK14QSharedPointerINS_7AccountEEP7QObject@Base 2.1.80
 _ZN6KGAPI27Blogger12PostFetchJobD0Ev@Base 2.1.80
 _ZN6KGAPI27Blogger12PostFetchJobD1Ev@Base 2.1.80
 _ZN6KGAPI27Blogger12PostFetchJobD2Ev@Base 2.1.80
 _ZN6KGAPI27Blogger13PageCreateJob11qt_metacallEN11QMetaObject4CallEiPPv@Base 2.1.80
 _ZN6KGAPI27Blogger13PageCreateJob11qt_metacastEPKc@Base 2.1.80
 _ZN6KGAPI27Blogger13PageCreateJob16staticMetaObjectE@Base 2.1.80
 _ZN6KGAPI27Blogger13PageCreateJob20handleReplyWithItemsEPK13QNetworkReplyRK10QByteArray@Base 2.1.80
 _ZN6KGAPI27Blogger13PageCreateJob5startEv@Base 2.1.80
 _ZN6KGAPI27Blogger13PageCreateJob7PrivateC1ERK14QSharedPointerINS0_4PageEE@Base 2.1.80
 _ZN6KGAPI27Blogger13PageCreateJob7PrivateC2ERK14QSharedPointerINS0_4PageEE@Base 2.1.80
 _ZN6KGAPI27Blogger13PageCreateJobC1ERK14QSharedPointerINS0_4PageEERKS2_INS_7AccountEEP7QObject@Base 2.1.80
 _ZN6KGAPI27Blogger13PageCreateJobC2ERK14QSharedPointerINS0_4PageEERKS2_INS_7AccountEEP7QObject@Base 2.1.80
 _ZN6KGAPI27Blogger13PageCreateJobD0Ev@Base 2.1.80
 _ZN6KGAPI27Blogger13PageCreateJobD1Ev@Base 2.1.80
 _ZN6KGAPI27Blogger13PageCreateJobD2Ev@Base 2.1.80
 _ZN6KGAPI27Blogger13PageDeleteJob11handleReplyEPK13QNetworkReplyRK10QByteArray@Base 2.1.80
 _ZN6KGAPI27Blogger13PageDeleteJob11qt_metacallEN11QMetaObject4CallEiPPv@Base 2.1.80
 _ZN6KGAPI27Blogger13PageDeleteJob11qt_metacastEPKc@Base 2.1.80
 _ZN6KGAPI27Blogger13PageDeleteJob16staticMetaObjectE@Base 2.1.80
 _ZN6KGAPI27Blogger13PageDeleteJob5startEv@Base 2.1.80
 _ZN6KGAPI27Blogger13PageDeleteJob7PrivateC1ERK7QStringS5_@Base 2.1.80
 _ZN6KGAPI27Blogger13PageDeleteJob7PrivateC2ERK7QStringS5_@Base 2.1.80
 _ZN6KGAPI27Blogger13PageDeleteJobC1ERK14QSharedPointerINS0_4PageEERKS2_INS_7AccountEEP7QObject@Base 2.1.80
 _ZN6KGAPI27Blogger13PageDeleteJobC1ERK7QStringS4_RK14QSharedPointerINS_7AccountEEP7QObject@Base 2.1.80
 _ZN6KGAPI27Blogger13PageDeleteJobC2ERK14QSharedPointerINS0_4PageEERKS2_INS_7AccountEEP7QObject@Base 2.1.80
 _ZN6KGAPI27Blogger13PageDeleteJobC2ERK7QStringS4_RK14QSharedPointerINS_7AccountEEP7QObject@Base 2.1.80
 _ZN6KGAPI27Blogger13PageDeleteJobD0Ev@Base 2.1.80
 _ZN6KGAPI27Blogger13PageDeleteJobD1Ev@Base 2.1.80
 _ZN6KGAPI27Blogger13PageDeleteJobD2Ev@Base 2.1.80
 _ZN6KGAPI27Blogger13PageModifyJob11qt_metacallEN11QMetaObject4CallEiPPv@Base 2.1.80
 _ZN6KGAPI27Blogger13PageModifyJob11qt_metacastEPKc@Base 2.1.80
 _ZN6KGAPI27Blogger13PageModifyJob16staticMetaObjectE@Base 2.1.80
 _ZN6KGAPI27Blogger13PageModifyJob20handleReplyWithItemsEPK13QNetworkReplyRK10QByteArray@Base 2.1.80
 _ZN6KGAPI27Blogger13PageModifyJob5startEv@Base 2.1.80
 _ZN6KGAPI27Blogger13PageModifyJob7PrivateC1ERK14QSharedPointerINS0_4PageEE@Base 2.1.80
 _ZN6KGAPI27Blogger13PageModifyJob7PrivateC2ERK14QSharedPointerINS0_4PageEE@Base 2.1.80
 _ZN6KGAPI27Blogger13PageModifyJobC1ERK14QSharedPointerINS0_4PageEERKS2_INS_7AccountEEP7QObject@Base 2.1.80
 _ZN6KGAPI27Blogger13PageModifyJobC2ERK14QSharedPointerINS0_4PageEERKS2_INS_7AccountEEP7QObject@Base 2.1.80
 _ZN6KGAPI27Blogger13PageModifyJobD0Ev@Base 2.1.80
 _ZN6KGAPI27Blogger13PageModifyJobD1Ev@Base 2.1.80
 _ZN6KGAPI27Blogger13PageModifyJobD2Ev@Base 2.1.80
 _ZN6KGAPI27Blogger13PostCreateJob11qt_metacallEN11QMetaObject4CallEiPPv@Base 2.1.80
 _ZN6KGAPI27Blogger13PostCreateJob11qt_metacastEPKc@Base 2.1.80
 _ZN6KGAPI27Blogger13PostCreateJob16staticMetaObjectE@Base 2.1.80
 _ZN6KGAPI27Blogger13PostCreateJob20handleReplyWithItemsEPK13QNetworkReplyRK10QByteArray@Base 2.1.80
 _ZN6KGAPI27Blogger13PostCreateJob5startEv@Base 2.1.80
 _ZN6KGAPI27Blogger13PostCreateJob7PrivateC1ERK14QSharedPointerINS0_4PostEEb@Base 2.1.80
 _ZN6KGAPI27Blogger13PostCreateJob7PrivateC2ERK14QSharedPointerINS0_4PostEEb@Base 2.1.80
 _ZN6KGAPI27Blogger13PostCreateJobC1ERK14QSharedPointerINS0_4PostEEbRKS2_INS_7AccountEEP7QObject@Base 2.1.80
 _ZN6KGAPI27Blogger13PostCreateJobC2ERK14QSharedPointerINS0_4PostEEbRKS2_INS_7AccountEEP7QObject@Base 2.1.80
 _ZN6KGAPI27Blogger13PostCreateJobD0Ev@Base 2.1.80
 _ZN6KGAPI27Blogger13PostCreateJobD1Ev@Base 2.1.80
 _ZN6KGAPI27Blogger13PostCreateJobD2Ev@Base 2.1.80
 _ZN6KGAPI27Blogger13PostDeleteJob11handleReplyEPK13QNetworkReplyRK10QByteArray@Base 2.1.80
 _ZN6KGAPI27Blogger13PostDeleteJob11qt_metacallEN11QMetaObject4CallEiPPv@Base 2.1.80
 _ZN6KGAPI27Blogger13PostDeleteJob11qt_metacastEPKc@Base 2.1.80
 _ZN6KGAPI27Blogger13PostDeleteJob16staticMetaObjectE@Base 2.1.80
 _ZN6KGAPI27Blogger13PostDeleteJob5startEv@Base 2.1.80
 _ZN6KGAPI27Blogger13PostDeleteJob7PrivateC1ERK7QStringS5_@Base 2.1.80
 _ZN6KGAPI27Blogger13PostDeleteJob7PrivateC2ERK7QStringS5_@Base 2.1.80
 _ZN6KGAPI27Blogger13PostDeleteJobC1ERK14QSharedPointerINS0_4PostEERKS2_INS_7AccountEEP7QObject@Base 2.1.80
 _ZN6KGAPI27Blogger13PostDeleteJobC1ERK7QStringS4_RK14QSharedPointerINS_7AccountEEP7QObject@Base 2.1.80
 _ZN6KGAPI27Blogger13PostDeleteJobC2ERK14QSharedPointerINS0_4PostEERKS2_INS_7AccountEEP7QObject@Base 2.1.80
 _ZN6KGAPI27Blogger13PostDeleteJobC2ERK7QStringS4_RK14QSharedPointerINS_7AccountEEP7QObject@Base 2.1.80
 _ZN6KGAPI27Blogger13PostDeleteJobD0Ev@Base 2.1.80
 _ZN6KGAPI27Blogger13PostDeleteJobD1Ev@Base 2.1.80
 _ZN6KGAPI27Blogger13PostDeleteJobD2Ev@Base 2.1.80
 _ZN6KGAPI27Blogger13PostModifyJob11qt_metacallEN11QMetaObject4CallEiPPv@Base 2.1.80
 _ZN6KGAPI27Blogger13PostModifyJob11qt_metacastEPKc@Base 2.1.80
 _ZN6KGAPI27Blogger13PostModifyJob16staticMetaObjectE@Base 2.1.80
 _ZN6KGAPI27Blogger13PostModifyJob20handleReplyWithItemsEPK13QNetworkReplyRK10QByteArray@Base 2.1.80
 _ZN6KGAPI27Blogger13PostModifyJob5startEv@Base 2.1.80
 _ZN6KGAPI27Blogger13PostModifyJob7PrivateC1ERK14QSharedPointerINS0_4PostEE@Base 2.1.80
 _ZN6KGAPI27Blogger13PostModifyJob7PrivateC2ERK14QSharedPointerINS0_4PostEE@Base 2.1.80
 _ZN6KGAPI27Blogger13PostModifyJobC1ERK14QSharedPointerINS0_4PostEERKS2_INS_7AccountEEP7QObject@Base 2.1.80
 _ZN6KGAPI27Blogger13PostModifyJobC2ERK14QSharedPointerINS0_4PostEERKS2_INS_7AccountEEP7QObject@Base 2.1.80
 _ZN6KGAPI27Blogger13PostModifyJobD0Ev@Base 2.1.80
 _ZN6KGAPI27Blogger13PostModifyJobD1Ev@Base 2.1.80
 _ZN6KGAPI27Blogger13PostModifyJobD2Ev@Base 2.1.80
 _ZN6KGAPI27Blogger13PostSearchJob11qt_metacallEN11QMetaObject4CallEiPPv@Base 2.1.80
 _ZN6KGAPI27Blogger13PostSearchJob11qt_metacastEPKc@Base 2.1.80
 _ZN6KGAPI27Blogger13PostSearchJob14setFetchBodiesEb@Base 2.1.80
 _ZN6KGAPI27Blogger13PostSearchJob16staticMetaObjectE@Base 2.1.80
 _ZN6KGAPI27Blogger13PostSearchJob20handleReplyWithItemsEPK13QNetworkReplyRK10QByteArray@Base 2.1.80
 _ZN6KGAPI27Blogger13PostSearchJob5startEv@Base 2.1.80
 _ZN6KGAPI27Blogger13PostSearchJob7Private13createRequestERK4QUrl@Base 2.1.80
 _ZN6KGAPI27Blogger13PostSearchJob7PrivateC1ERK7QStringS5_PS1_@Base 2.1.80
 _ZN6KGAPI27Blogger13PostSearchJob7PrivateC2ERK7QStringS5_PS1_@Base 2.1.80
 _ZN6KGAPI27Blogger13PostSearchJobC1ERK7QStringS4_RK14QSharedPointerINS_7AccountEEP7QObject@Base 2.1.80
 _ZN6KGAPI27Blogger13PostSearchJobC2ERK7QStringS4_RK14QSharedPointerINS_7AccountEEP7QObject@Base 2.1.80
 _ZN6KGAPI27Blogger13PostSearchJobD0Ev@Base 2.1.80
 _ZN6KGAPI27Blogger13PostSearchJobD1Ev@Base 2.1.80
 _ZN6KGAPI27Blogger13PostSearchJobD2Ev@Base 2.1.80
 _ZN6KGAPI27Blogger14PostPublishJob11handleReplyEPK13QNetworkReplyRK10QByteArray@Base 2.1.80
 _ZN6KGAPI27Blogger14PostPublishJob11qt_metacallEN11QMetaObject4CallEiPPv@Base 2.1.80
 _ZN6KGAPI27Blogger14PostPublishJob11qt_metacastEPKc@Base 2.1.80
 _ZN6KGAPI27Blogger14PostPublishJob15dispatchRequestEP21QNetworkAccessManagerRK15QNetworkRequestRK10QByteArrayRK7QString@Base 2.1.80
 _ZN6KGAPI27Blogger14PostPublishJob16staticMetaObjectE@Base 2.1.80
 _ZN6KGAPI27Blogger14PostPublishJob5startEv@Base 2.1.80
 _ZN6KGAPI27Blogger14PostPublishJob7PrivateC1ERK7QStringS5_NS1_13PublishActionERK9KDateTime@Base 2.1.80
 _ZN6KGAPI27Blogger14PostPublishJob7PrivateC2ERK7QStringS5_NS1_13PublishActionERK9KDateTime@Base 2.1.80
 _ZN6KGAPI27Blogger14PostPublishJobC1ERK14QSharedPointerINS0_4PostEENS1_13PublishActionERKS2_INS_7AccountEEP7QObject@Base 2.1.80
 _ZN6KGAPI27Blogger14PostPublishJobC1ERK14QSharedPointerINS0_4PostEERK9KDateTimeRKS2_INS_7AccountEEP7QObject@Base 2.1.80
 _ZN6KGAPI27Blogger14PostPublishJobC1ERK7QStringS4_NS1_13PublishActionERK14QSharedPointerINS_7AccountEEP7QObject@Base 2.1.80
 _ZN6KGAPI27Blogger14PostPublishJobC1ERK7QStringS4_RK9KDateTimeRK14QSharedPointerINS_7AccountEEP7QObject@Base 2.1.80
 _ZN6KGAPI27Blogger14PostPublishJobC2ERK14QSharedPointerINS0_4PostEENS1_13PublishActionERKS2_INS_7AccountEEP7QObject@Base 2.1.80
 _ZN6KGAPI27Blogger14PostPublishJobC2ERK14QSharedPointerINS0_4PostEERK9KDateTimeRKS2_INS_7AccountEEP7QObject@Base 2.1.80
 _ZN6KGAPI27Blogger14PostPublishJobC2ERK7QStringS4_NS1_13PublishActionERK14QSharedPointerINS_7AccountEEP7QObject@Base 2.1.80
 _ZN6KGAPI27Blogger14PostPublishJobC2ERK7QStringS4_RK9KDateTimeRK14QSharedPointerINS_7AccountEEP7QObject@Base 2.1.80
 _ZN6KGAPI27Blogger14PostPublishJobD0Ev@Base 2.1.80
 _ZN6KGAPI27Blogger14PostPublishJobD1Ev@Base 2.1.80
 _ZN6KGAPI27Blogger14PostPublishJobD2Ev@Base 2.1.80
 _ZN6KGAPI27Blogger15CommentFetchJob10setEndDateERK9KDateTime@Base 2.1.80
 _ZN6KGAPI27Blogger15CommentFetchJob11qt_metacallEN11QMetaObject4CallEiPPv@Base 2.1.80
 _ZN6KGAPI27Blogger15CommentFetchJob11qt_metacastEPKc@Base 2.1.80
 _ZN6KGAPI27Blogger15CommentFetchJob12setStartDateERK9KDateTime@Base 2.1.80
 _ZN6KGAPI27Blogger15CommentFetchJob13setMaxResultsEj@Base 2.1.80
 _ZN6KGAPI27Blogger15CommentFetchJob14setFetchBodiesEb@Base 2.1.80
 _ZN6KGAPI27Blogger15CommentFetchJob16staticMetaObjectE@Base 2.1.80
 _ZN6KGAPI27Blogger15CommentFetchJob20handleReplyWithItemsEPK13QNetworkReplyRK10QByteArray@Base 2.1.80
 _ZN6KGAPI27Blogger15CommentFetchJob5startEv@Base 2.1.80
 _ZN6KGAPI27Blogger15CommentFetchJob7Private13createRequestERK4QUrl@Base 2.1.80
 _ZN6KGAPI27Blogger15CommentFetchJob7PrivateC1ERK7QStringS5_S5_PS1_@Base 2.1.80
 _ZN6KGAPI27Blogger15CommentFetchJob7PrivateC2ERK7QStringS5_S5_PS1_@Base 2.1.80
 _ZN6KGAPI27Blogger15CommentFetchJob7PrivateD1Ev@Base 2.1.80
 _ZN6KGAPI27Blogger15CommentFetchJob7PrivateD2Ev@Base 2.1.80
 _ZN6KGAPI27Blogger15CommentFetchJobC1ERK7QStringRK14QSharedPointerINS_7AccountEEP7QObject@Base 2.1.80
 _ZN6KGAPI27Blogger15CommentFetchJobC1ERK7QStringS4_RK14QSharedPointerINS_7AccountEEP7QObject@Base 2.1.80
 _ZN6KGAPI27Blogger15CommentFetchJobC1ERK7QStringS4_S4_RK14QSharedPointerINS_7AccountEEP7QObject@Base 2.1.80
 _ZN6KGAPI27Blogger15CommentFetchJobC2ERK7QStringRK14QSharedPointerINS_7AccountEEP7QObject@Base 2.1.80
 _ZN6KGAPI27Blogger15CommentFetchJobC2ERK7QStringS4_RK14QSharedPointerINS_7AccountEEP7QObject@Base 2.1.80
 _ZN6KGAPI27Blogger15CommentFetchJobC2ERK7QStringS4_S4_RK14QSharedPointerINS_7AccountEEP7QObject@Base 2.1.80
 _ZN6KGAPI27Blogger15CommentFetchJobD0Ev@Base 2.1.80
 _ZN6KGAPI27Blogger15CommentFetchJobD1Ev@Base 2.1.80
 _ZN6KGAPI27Blogger15CommentFetchJobD2Ev@Base 2.1.80
 _ZN6KGAPI27Blogger16CommentDeleteJob11handleReplyEPK13QNetworkReplyRK10QByteArray@Base 2.1.80
 _ZN6KGAPI27Blogger16CommentDeleteJob11qt_metacallEN11QMetaObject4CallEiPPv@Base 2.1.80
 _ZN6KGAPI27Blogger16CommentDeleteJob11qt_metacastEPKc@Base 2.1.80
 _ZN6KGAPI27Blogger16CommentDeleteJob16staticMetaObjectE@Base 2.1.80
 _ZN6KGAPI27Blogger16CommentDeleteJob5startEv@Base 2.1.80
 _ZN6KGAPI27Blogger16CommentDeleteJob7PrivateC1ERK7QStringS5_S5_@Base 2.1.80
 _ZN6KGAPI27Blogger16CommentDeleteJob7PrivateC2ERK7QStringS5_S5_@Base 2.1.80
 _ZN6KGAPI27Blogger16CommentDeleteJobC1ERK14QSharedPointerINS0_7CommentEERKS2_INS_7AccountEEP7QObject@Base 2.1.80
 _ZN6KGAPI27Blogger16CommentDeleteJobC1ERK7QStringS4_S4_RK14QSharedPointerINS_7AccountEEP7QObject@Base 2.1.80
 _ZN6KGAPI27Blogger16CommentDeleteJobC2ERK14QSharedPointerINS0_7CommentEERKS2_INS_7AccountEEP7QObject@Base 2.1.80
 _ZN6KGAPI27Blogger16CommentDeleteJobC2ERK7QStringS4_S4_RK14QSharedPointerINS_7AccountEEP7QObject@Base 2.1.80
 _ZN6KGAPI27Blogger16CommentDeleteJobD0Ev@Base 2.1.80
 _ZN6KGAPI27Blogger16CommentDeleteJobD1Ev@Base 2.1.80
 _ZN6KGAPI27Blogger16CommentDeleteJobD2Ev@Base 2.1.80
 _ZN6KGAPI27Blogger17CommentApproveJob11qt_metacallEN11QMetaObject4CallEiPPv@Base 2.1.80
 _ZN6KGAPI27Blogger17CommentApproveJob11qt_metacastEPKc@Base 2.1.80
 _ZN6KGAPI27Blogger17CommentApproveJob16staticMetaObjectE@Base 2.1.80
 _ZN6KGAPI27Blogger17CommentApproveJob20handleReplyWithItemsEPK13QNetworkReplyRK10QByteArray@Base 2.1.80
 _ZN6KGAPI27Blogger17CommentApproveJob5startEv@Base 2.1.80
 _ZN6KGAPI27Blogger17CommentApproveJob7PrivateC1ERK7QStringS5_S5_NS1_14ApprovalActionE@Base 2.1.80
 _ZN6KGAPI27Blogger17CommentApproveJob7PrivateC2ERK7QStringS5_S5_NS1_14ApprovalActionE@Base 2.1.80
 _ZN6KGAPI27Blogger17CommentApproveJobC1ERK14QSharedPointerINS0_7CommentEENS1_14ApprovalActionERKS2_INS_7AccountEEP7QObject@Base 2.1.80
 _ZN6KGAPI27Blogger17CommentApproveJobC1ERK7QStringS4_S4_NS1_14ApprovalActionERK14QSharedPointerINS_7AccountEEP7QObject@Base 2.1.80
 _ZN6KGAPI27Blogger17CommentApproveJobC2ERK14QSharedPointerINS0_7CommentEENS1_14ApprovalActionERKS2_INS_7AccountEEP7QObject@Base 2.1.80
 _ZN6KGAPI27Blogger17CommentApproveJobC2ERK7QStringS4_S4_NS1_14ApprovalActionERK14QSharedPointerINS_7AccountEEP7QObject@Base 2.1.80
 _ZN6KGAPI27Blogger17CommentApproveJobD0Ev@Base 2.1.80
 _ZN6KGAPI27Blogger17CommentApproveJobD1Ev@Base 2.1.80
 _ZN6KGAPI27Blogger17CommentApproveJobD2Ev@Base 2.1.80
 _ZN6KGAPI27Blogger23CommentDeleteContentJob11qt_metacallEN11QMetaObject4CallEiPPv@Base 2.1.80
 _ZN6KGAPI27Blogger23CommentDeleteContentJob11qt_metacastEPKc@Base 2.1.80
 _ZN6KGAPI27Blogger23CommentDeleteContentJob16staticMetaObjectE@Base 2.1.80
 _ZN6KGAPI27Blogger23CommentDeleteContentJob20handleReplyWithItemsEPK13QNetworkReplyRK10QByteArray@Base 2.1.80
 _ZN6KGAPI27Blogger23CommentDeleteContentJob5startEv@Base 2.1.80
 _ZN6KGAPI27Blogger23CommentDeleteContentJob7PrivateC1ERK7QStringS5_S5_@Base 2.1.80
 _ZN6KGAPI27Blogger23CommentDeleteContentJob7PrivateC2ERK7QStringS5_S5_@Base 2.1.80
 _ZN6KGAPI27Blogger23CommentDeleteContentJobC1ERK14QSharedPointerINS0_7CommentEERKS2_INS_7AccountEEP7QObject@Base 2.1.80
 _ZN6KGAPI27Blogger23CommentDeleteContentJobC1ERK7QStringS4_S4_RK14QSharedPointerINS_7AccountEEP7QObject@Base 2.1.80
 _ZN6KGAPI27Blogger23CommentDeleteContentJobC2ERK14QSharedPointerINS0_7CommentEERKS2_INS_7AccountEEP7QObject@Base 2.1.80
 _ZN6KGAPI27Blogger23CommentDeleteContentJobC2ERK7QStringS4_S4_RK14QSharedPointerINS_7AccountEEP7QObject@Base 2.1.80
 _ZN6KGAPI27Blogger23CommentDeleteContentJobD0Ev@Base 2.1.80
 _ZN6KGAPI27Blogger23CommentDeleteContentJobD1Ev@Base 2.1.80
 _ZN6KGAPI27Blogger23CommentDeleteContentJobD2Ev@Base 2.1.80
 _ZN6KGAPI27Blogger4Blog12fromJSONFeedERK10QByteArray@Base 2.1.80
 _ZN6KGAPI27Blogger4Blog3urlEv@Base 2.1.80
 _ZN6KGAPI27Blogger4Blog7Private8fromJSONERK8QVariant@Base 2.1.80
 _ZN6KGAPI27Blogger4Blog7PrivateC1Ev@Base 2.1.80
 _ZN6KGAPI27Blogger4Blog7PrivateC2Ev@Base 2.1.80
 _ZN6KGAPI27Blogger4Blog8fromJSONERK10QByteArray@Base 2.1.80
 _ZN6KGAPI27Blogger4BlogC1Ev@Base 2.1.80
 _ZN6KGAPI27Blogger4BlogC2Ev@Base 2.1.80
 _ZN6KGAPI27Blogger4BlogD0Ev@Base 2.1.80
 _ZN6KGAPI27Blogger4BlogD1Ev@Base 2.1.80
 _ZN6KGAPI27Blogger4BlogD2Ev@Base 2.1.80
 _ZN6KGAPI27Blogger4Page10setContentERK7QString@Base 2.1.80
 _ZN6KGAPI27Blogger4Page10setUpdatedER9KDateTime@Base 2.1.80
 _ZN6KGAPI27Blogger4Page12fromJSONFeedERK10QByteArray@Base 2.1.80
 _ZN6KGAPI27Blogger4Page12setPublishedERK9KDateTime@Base 2.1.80
 _ZN6KGAPI27Blogger4Page5setIdERK7QString@Base 2.1.80
 _ZN6KGAPI27Blogger4Page6setUrlERK4QUrl@Base 2.1.80
 _ZN6KGAPI27Blogger4Page6toJSONERK14QSharedPointerIS1_E@Base 2.1.80
 _ZN6KGAPI27Blogger4Page7Private6toJSONERK14QSharedPointerIS1_E@Base 2.1.80
 _ZN6KGAPI27Blogger4Page7Private8fromJSONERK8QVariant@Base 2.1.80
 _ZN6KGAPI27Blogger4Page7PrivateC1Ev@Base 2.1.80
 _ZN6KGAPI27Blogger4Page7PrivateC2Ev@Base 2.1.80
 _ZN6KGAPI27Blogger4Page7PrivateD1Ev@Base 2.1.80
 _ZN6KGAPI27Blogger4Page7PrivateD2Ev@Base 2.1.80
 _ZN6KGAPI27Blogger4Page8fromJSONERK10QByteArray@Base 2.1.80
 _ZN6KGAPI27Blogger4Page8setTitleERK7QString@Base 2.1.80
 _ZN6KGAPI27Blogger4Page9setBlogIdERK7QString@Base 2.1.80
 _ZN6KGAPI27Blogger4Page9setStatusENS1_6StatusE@Base 2.1.80
 _ZN6KGAPI27Blogger4PageC1Ev@Base 2.1.80
 _ZN6KGAPI27Blogger4PageC2Ev@Base 2.1.80
 _ZN6KGAPI27Blogger4PageD0Ev@Base 2.1.80
 _ZN6KGAPI27Blogger4PageD1Ev@Base 2.1.80
 _ZN6KGAPI27Blogger4PageD2Ev@Base 2.1.80
 _ZN6KGAPI27Blogger4Post10setContentERK7QString@Base 2.1.80
 _ZN6KGAPI27Blogger4Post10setUpdatedERK9KDateTime@Base 2.1.80
 _ZN6KGAPI27Blogger4Post11setLatitudeEd@Base 2.1.80
 _ZN6KGAPI27Blogger4Post11setLocationERK7QString@Base 2.1.80
 _ZN6KGAPI27Blogger4Post12fromJSONFeedERK10QByteArrayRNS_8FeedDataE@Base 2.1.80
 _ZN6KGAPI27Blogger4Post12setLongituteEd@Base 2.1.80
 _ZN6KGAPI27Blogger4Post12setPublishedERK9KDateTime@Base 2.1.80
 _ZN6KGAPI27Blogger4Post17setCustomMetaDataERK8QVariant@Base 2.1.80
 _ZN6KGAPI27Blogger4Post2idEv@Base 2.1.80
 _ZN6KGAPI27Blogger4Post5setIdERK7QString@Base 2.1.80
 _ZN6KGAPI27Blogger4Post6blogIdEv@Base 2.1.80
 _ZN6KGAPI27Blogger4Post6setUrlERK4QUrl@Base 2.1.80
 _ZN6KGAPI27Blogger4Post6toJSONERK14QSharedPointerIS1_E@Base 2.1.80
 _ZN6KGAPI27Blogger4Post7Private6toJSONERK14QSharedPointerIS1_E@Base 2.1.80
 _ZN6KGAPI27Blogger4Post7Private8fromJSONERK8QVariant@Base 2.1.80
 _ZN6KGAPI27Blogger4Post7PrivateC1Ev@Base 2.1.80
 _ZN6KGAPI27Blogger4Post7PrivateC2Ev@Base 2.1.80
 _ZN6KGAPI27Blogger4Post8fromJSONERK10QByteArray@Base 2.1.80
 _ZN6KGAPI27Blogger4Post8setTitleERK7QString@Base 2.1.80
 _ZN6KGAPI27Blogger4Post9setBlogIdERK7QString@Base 2.1.80
 _ZN6KGAPI27Blogger4Post9setImagesERK5QListI4QUrlE@Base 2.1.80
 _ZN6KGAPI27Blogger4Post9setLabelsERK11QStringList@Base 2.1.80
 _ZN6KGAPI27Blogger4PostC1Ev@Base 2.1.80
 _ZN6KGAPI27Blogger4PostC2Ev@Base 2.1.80
 _ZN6KGAPI27Blogger4PostD0Ev@Base 2.1.80
 _ZN6KGAPI27Blogger4PostD1Ev@Base 2.1.80
 _ZN6KGAPI27Blogger4PostD2Ev@Base 2.1.80
 _ZN6KGAPI27Blogger7Comment10setContentERK7QString@Base 2.1.80
 _ZN6KGAPI27Blogger7Comment10setUpdatedERK9KDateTime@Base 2.1.80
 _ZN6KGAPI27Blogger7Comment11setAuthorIdERK7QString@Base 2.1.80
 _ZN6KGAPI27Blogger7Comment12fromJSONFeedERK10QByteArrayRNS_8FeedDataE@Base 2.1.80
 _ZN6KGAPI27Blogger7Comment12setAuthorUrlERK4QUrl@Base 2.1.80
 _ZN6KGAPI27Blogger7Comment12setInReplyToERK7QString@Base 2.1.80
 _ZN6KGAPI27Blogger7Comment12setPublishedERK9KDateTime@Base 2.1.80
 _ZN6KGAPI27Blogger7Comment13setAuthorNameERK7QString@Base 2.1.80
 _ZN6KGAPI27Blogger7Comment17setAuthorImageUrlERK4QUrl@Base 2.1.80
 _ZN6KGAPI27Blogger7Comment5setIdERK7QString@Base 2.1.80
 _ZN6KGAPI27Blogger7Comment7Private8fromJSONERK8QVariant@Base 2.1.80
 _ZN6KGAPI27Blogger7Comment7PrivateC1Ev@Base 2.1.80
 _ZN6KGAPI27Blogger7Comment7PrivateC2Ev@Base 2.1.80
 _ZN6KGAPI27Blogger7Comment8fromJSONERK10QByteArray@Base 2.1.80
 _ZN6KGAPI27Blogger7Comment9setBlogIdERK7QString@Base 2.1.80
 _ZN6KGAPI27Blogger7Comment9setPostIdERK7QString@Base 2.1.80
 _ZN6KGAPI27Blogger7Comment9setStatusERK7QString@Base 2.1.80
 _ZN6KGAPI27Blogger7CommentC1Ev@Base 2.1.80
 _ZN6KGAPI27Blogger7CommentC2Ev@Base 2.1.80
 _ZN6KGAPI27Blogger7CommentD0Ev@Base 2.1.80
 _ZN6KGAPI27Blogger7CommentD1Ev@Base 2.1.80
 _ZN6KGAPI27Blogger7CommentD2Ev@Base 2.1.80
 _ZN6KGAPI27Contact10setCreatedERK9KDateTime@Base 2.0.1
 _ZN6KGAPI27Contact10setDeletedEb@Base 2.0.1
 _ZN6KGAPI27Contact10setUpdatedERK9KDateTime@Base 2.0.1
 _ZN6KGAPI27Contact11clearGroupsEv@Base 2.0.1
 _ZN6KGAPI27Contact11removeGroupERK7QString@Base 2.0.1
 _ZN6KGAPI27Contact11setBlogFeedERK7QString@Base 2.0.1
 _ZN6KGAPI27Contact11setPhotoUrlERK4QUrl@Base 2.0.1
 _ZN6KGAPI27Contact11setPhotoUrlERK7QString@Base 2.0.1
 _ZN6KGAPI27Contact13setProfessionERK7QString@Base 2.0.1
 _ZN6KGAPI27Contact14setAnniversaryERK7QString@Base 2.0.1
 _ZN6KGAPI27Contact14setSpousesNameERK7QString@Base 2.0.1
 _ZN6KGAPI27Contact15setManagersNameERK7QString@Base 2.0.1
 _ZN6KGAPI27Contact17phoneSchemeToTypeERK7QString@Base 2.0.1
 _ZN6KGAPI27Contact17phoneTypeToSchemeE6QFlagsIN4KABC11PhoneNumber8TypeFlagEE@Base 2.0.1
 _ZN6KGAPI27Contact17setAssistantsNameERK7QString@Base 2.0.1
 _ZN6KGAPI27Contact18IMProtocolToSchemeENS0_10IMProtocolE@Base 2.0.1
 _ZN6KGAPI27Contact18IMSchemeToProtocolERK7QString@Base 2.0.1
 _ZN6KGAPI27Contact19addressSchemeToTypeERK7QStringb@Base 2.0.1
 _ZN6KGAPI27Contact19addressTypeToSchemeE6QFlagsIN4KABC7Address8TypeFlagEEPb@Base 2.0.1
 _ZN6KGAPI27Contact22IMProtocolNameToSchemeERK7QString@Base 2.0.1
 _ZN6KGAPI27Contact22IMSchemeToProtocolNameERK7QString@Base 2.0.1
 _ZN6KGAPI27Contact7PrivateC1ERKS1_@Base 2.0.1
 _ZN6KGAPI27Contact7PrivateC2ERKS1_@Base 2.0.1
 _ZN6KGAPI27Contact8addGroupERK7QString@Base 2.0.1
 _ZN6KGAPI27Contact9setGroupsERK11QStringList@Base 2.0.1
 _ZN6KGAPI27Contact9setOfficeERK7QString@Base 2.0.1
 _ZN6KGAPI27ContactC1ERKN4KABC9AddresseeE@Base 2.0.1
 _ZN6KGAPI27ContactC1ERKS0_@Base 2.0.1
 _ZN6KGAPI27ContactC1Ev@Base 2.0.1
 _ZN6KGAPI27ContactC2ERKN4KABC9AddresseeE@Base 2.0.1
 _ZN6KGAPI27ContactC2ERKS0_@Base 2.0.1
 _ZN6KGAPI27ContactC2Ev@Base 2.0.1
 _ZN6KGAPI27ContactD0Ev@Base 2.0.1
 _ZN6KGAPI27ContactD1Ev@Base 2.0.1
 _ZN6KGAPI27ContactD2Ev@Base 2.0.1
 _ZN6KGAPI28Calendar10setDetailsERK7QString@Base 2.0.1
 _ZN6KGAPI28Calendar11setEditableEb@Base 2.0.1
 _ZN6KGAPI28Calendar11setLocationERK7QString@Base 2.0.1
 _ZN6KGAPI28Calendar11setTimezoneERK7QString@Base 2.0.1
 _ZN6KGAPI28Calendar17addDefaultReminerERK14QSharedPointerINS_8ReminderEE@Base 2.0.1
 _ZN6KGAPI28Calendar18setBackgroundColorERK6QColor@Base 2.1.0
 _ZN6KGAPI28Calendar18setForegroundColorERK6QColor@Base 2.1.0
 _ZN6KGAPI28Calendar19setDefaultRemindersERK5QListI14QSharedPointerINS_8ReminderEEE@Base 2.0.1
 _ZN6KGAPI28Calendar6setUidERK7QString@Base 2.0.1
 _ZN6KGAPI28Calendar7PrivateC1ERKS1_@Base 2.0.1
 _ZN6KGAPI28Calendar7PrivateC1Ev@Base 2.0.1
 _ZN6KGAPI28Calendar7PrivateC2ERKS1_@Base 2.0.1
 _ZN6KGAPI28Calendar7PrivateC2Ev@Base 2.0.1
 _ZN6KGAPI28Calendar8setTitleERK7QString@Base 2.0.1
 _ZN6KGAPI28CalendarC1ERKS0_@Base 2.0.1
 _ZN6KGAPI28CalendarC1Ev@Base 2.0.1
 _ZN6KGAPI28CalendarC2ERKS0_@Base 2.0.1
 _ZN6KGAPI28CalendarC2Ev@Base 2.0.1
 _ZN6KGAPI28CalendarD0Ev@Base 2.0.1
 _ZN6KGAPI28CalendarD1Ev@Base 2.0.1
 _ZN6KGAPI28CalendarD2Ev@Base 2.0.1
 _ZN6KGAPI28FetchJob11handleReplyEPK13QNetworkReplyRK10QByteArray@Base 2.0.1
 _ZN6KGAPI28FetchJob11qt_metacallEN11QMetaObject4CallEiPPv@Base 2.0.1
 _ZN6KGAPI28FetchJob11qt_metacastEPKc@Base 2.0.1
 _ZN6KGAPI28FetchJob12aboutToStartEv@Base 2.0.1
 _ZN6KGAPI28FetchJob15dispatchRequestEP21QNetworkAccessManagerRK15QNetworkRequestRK10QByteArrayRK7QString@Base 2.0.1
 _ZN6KGAPI28FetchJob16staticMetaObjectE@Base 2.0.1
 _ZN6KGAPI28FetchJob20handleReplyWithItemsEPK13QNetworkReplyRK10QByteArray@Base 2.0.1
 _ZN6KGAPI28FetchJobC1EP7QObject@Base 2.0.1
 _ZN6KGAPI28FetchJobC1ERK14QSharedPointerINS_7AccountEEP7QObject@Base 2.0.1
 _ZN6KGAPI28FetchJobC2EP7QObject@Base 2.0.1
 _ZN6KGAPI28FetchJobC2ERK14QSharedPointerINS_7AccountEEP7QObject@Base 2.0.1
 _ZN6KGAPI28FetchJobD0Ev@Base 2.0.1
 _ZN6KGAPI28FetchJobD1Ev@Base 2.0.1
 _ZN6KGAPI28FetchJobD2Ev@Base 2.0.1
 _ZN6KGAPI28Location10setHeadingERKi@Base 2.0.1
 _ZN6KGAPI28Location11setAccuracyERKi@Base 2.0.1
 _ZN6KGAPI28Location11setAltitudeERKi@Base 2.0.1
 _ZN6KGAPI28Location12setTimestampERKy@Base 2.0.1
 _ZN6KGAPI28Location19setAltitudeAccuracyERKi@Base 2.0.1
 _ZN6KGAPI28Location7PrivateC1ERKS1_@Base 2.0.1
 _ZN6KGAPI28Location7PrivateC1Ev@Base 2.0.1
 _ZN6KGAPI28Location7PrivateC2ERKS1_@Base 2.0.1
 _ZN6KGAPI28Location7PrivateC2Ev@Base 2.0.1
 _ZN6KGAPI28Location8setSpeedERKi@Base 2.0.1
 _ZN6KGAPI28LocationC1ERKS0_@Base 2.0.1
 _ZN6KGAPI28LocationC1Eff@Base 2.0.1
 _ZN6KGAPI28LocationC1Ev@Base 2.0.1
 _ZN6KGAPI28LocationC2ERKS0_@Base 2.0.1
 _ZN6KGAPI28LocationC2Eff@Base 2.0.1
 _ZN6KGAPI28LocationC2Ev@Base 2.0.1
 _ZN6KGAPI28LocationD0Ev@Base 2.0.1
 _ZN6KGAPI28LocationD1Ev@Base 2.0.1
 _ZN6KGAPI28LocationD2Ev@Base 2.0.1
 _ZN6KGAPI28Reminder14setStartOffsetERKN8KCalCore8DurationE@Base 2.0.1
 _ZN6KGAPI28Reminder7PrivateC1ERKS1_@Base 2.0.1
 _ZN6KGAPI28Reminder7PrivateC1Ev@Base 2.0.1
 _ZN6KGAPI28Reminder7PrivateC2ERKS1_@Base 2.0.1
 _ZN6KGAPI28Reminder7PrivateC2Ev@Base 2.0.1
 _ZN6KGAPI28Reminder7setTypeERKN8KCalCore5Alarm4TypeE@Base 2.0.1
 _ZN6KGAPI28ReminderC1ERKN8KCalCore5Alarm4TypeERKNS1_8DurationE@Base 2.0.1
 _ZN6KGAPI28ReminderC1ERKS0_@Base 2.0.1
 _ZN6KGAPI28ReminderC1Ev@Base 2.0.1
 _ZN6KGAPI28ReminderC2ERKN8KCalCore5Alarm4TypeERKNS1_8DurationE@Base 2.0.1
 _ZN6KGAPI28ReminderC2ERKS0_@Base 2.0.1
 _ZN6KGAPI28ReminderC2Ev@Base 2.0.1
 _ZN6KGAPI28ReminderD0Ev@Base 2.0.1
 _ZN6KGAPI28ReminderD1Ev@Base 2.0.1
 _ZN6KGAPI28ReminderD2Ev@Base 2.0.1
 _ZN6KGAPI28TaskList6setUidERK7QString@Base 2.0.1
 _ZN6KGAPI28TaskList7PrivateC1ERKS1_@Base 2.0.1
 _ZN6KGAPI28TaskList7PrivateC1Ev@Base 2.0.1
 _ZN6KGAPI28TaskList7PrivateC2ERKS1_@Base 2.0.1
 _ZN6KGAPI28TaskList7PrivateC2Ev@Base 2.0.1
 _ZN6KGAPI28TaskList8setTitleERK7QString@Base 2.0.1
 _ZN6KGAPI28TaskListC1ERKS0_@Base 2.0.1
 _ZN6KGAPI28TaskListC1Ev@Base 2.0.1
 _ZN6KGAPI28TaskListC2ERKS0_@Base 2.0.1
 _ZN6KGAPI28TaskListC2Ev@Base 2.0.1
 _ZN6KGAPI28TaskListD0Ev@Base 2.0.1
 _ZN6KGAPI28TaskListD1Ev@Base 2.0.1
 _ZN6KGAPI28TaskListD2Ev@Base 2.0.1
 _ZN6KGAPI29CreateJob11handleReplyEPK13QNetworkReplyRK10QByteArray@Base 2.0.1
 _ZN6KGAPI29CreateJob11qt_metacallEN11QMetaObject4CallEiPPv@Base 2.0.1
 _ZN6KGAPI29CreateJob11qt_metacastEPKc@Base 2.0.1
 _ZN6KGAPI29CreateJob12aboutToStartEv@Base 2.0.1
 _ZN6KGAPI29CreateJob15dispatchRequestEP21QNetworkAccessManagerRK15QNetworkRequestRK10QByteArrayRK7QString@Base 2.0.1
 _ZN6KGAPI29CreateJob16staticMetaObjectE@Base 2.0.1
 _ZN6KGAPI29CreateJob20handleReplyWithItemsEPK13QNetworkReplyRK10QByteArray@Base 2.0.1
 _ZN6KGAPI29CreateJobC1EP7QObject@Base 2.0.1
 _ZN6KGAPI29CreateJobC1ERK14QSharedPointerINS_7AccountEEP7QObject@Base 2.0.1
 _ZN6KGAPI29CreateJobC2EP7QObject@Base 2.0.1
 _ZN6KGAPI29CreateJobC2ERK14QSharedPointerINS_7AccountEEP7QObject@Base 2.0.1
 _ZN6KGAPI29CreateJobD0Ev@Base 2.0.1
 _ZN6KGAPI29CreateJobD1Ev@Base 2.0.1
 _ZN6KGAPI29CreateJobD2Ev@Base 2.0.1
 _ZN6KGAPI29DeleteJob11handleReplyEPK13QNetworkReplyRK10QByteArray@Base 2.0.1
 _ZN6KGAPI29DeleteJob11qt_metacallEN11QMetaObject4CallEiPPv@Base 2.0.1
 _ZN6KGAPI29DeleteJob11qt_metacastEPKc@Base 2.0.1
 _ZN6KGAPI29DeleteJob15dispatchRequestEP21QNetworkAccessManagerRK15QNetworkRequestRK10QByteArrayRK7QString@Base 2.0.1
 _ZN6KGAPI29DeleteJob16staticMetaObjectE@Base 2.0.1
 _ZN6KGAPI29DeleteJobC1EP7QObject@Base 2.0.1
 _ZN6KGAPI29DeleteJobC1ERK14QSharedPointerINS_7AccountEEP7QObject@Base 2.0.1
 _ZN6KGAPI29DeleteJobC2EP7QObject@Base 2.0.1
 _ZN6KGAPI29DeleteJobC2ERK14QSharedPointerINS_7AccountEEP7QObject@Base 2.0.1
 _ZN6KGAPI29DeleteJobD0Ev@Base 2.0.1
 _ZN6KGAPI29DeleteJobD1Ev@Base 2.0.1
 _ZN6KGAPI29DeleteJobD2Ev@Base 2.0.1
 _ZN6KGAPI29ModifyJob11handleReplyEPK13QNetworkReplyRK10QByteArray@Base 2.0.1
 _ZN6KGAPI29ModifyJob11qt_metacallEN11QMetaObject4CallEiPPv@Base 2.0.1
 _ZN6KGAPI29ModifyJob11qt_metacastEPKc@Base 2.0.1
 _ZN6KGAPI29ModifyJob12aboutToStartEv@Base 2.0.1
 _ZN6KGAPI29ModifyJob15dispatchRequestEP21QNetworkAccessManagerRK15QNetworkRequestRK10QByteArrayRK7QString@Base 2.0.1
 _ZN6KGAPI29ModifyJob16staticMetaObjectE@Base 2.0.1
 _ZN6KGAPI29ModifyJob20handleReplyWithItemsEPK13QNetworkReplyRK10QByteArray@Base 2.0.1
 _ZN6KGAPI29ModifyJob5itemsEv@Base 2.0.1
 _ZN6KGAPI29ModifyJobC1EP7QObject@Base 2.0.1
 _ZN6KGAPI29ModifyJobC1ERK14QSharedPointerINS_7AccountEEP7QObject@Base 2.0.1
 _ZN6KGAPI29ModifyJobC2EP7QObject@Base 2.0.1
 _ZN6KGAPI29ModifyJobC2ERK14QSharedPointerINS_7AccountEEP7QObject@Base 2.0.1
 _ZN6KGAPI29ModifyJobD0Ev@Base 2.0.1
 _ZN6KGAPI29ModifyJobD1Ev@Base 2.0.1
 _ZN6KGAPI29ModifyJobD2Ev@Base 2.0.1
 _ZNK6KGAPI210AuthWidget10metaObjectEv@Base 2.0.1
 _ZNK6KGAPI210AuthWidget11getProgressEv@Base 2.0.1
 _ZNK6KGAPI210AuthWidget18getShowProgressBarEv@Base 2.0.1
 _ZNK6KGAPI210AuthWidget7Private10metaObjectEv@Base 2.0.1
 _ZNK6KGAPI211AccountInfo10familyNameEv@Base 2.0.1
 _ZNK6KGAPI211AccountInfo13verifiedEmailEv@Base 2.0.1
 _ZNK6KGAPI211AccountInfo2idEv@Base 2.0.1
 _ZNK6KGAPI211AccountInfo4linkEv@Base 2.0.1
 _ZNK6KGAPI211AccountInfo4nameEv@Base 2.0.1
 _ZNK6KGAPI211AccountInfo5emailEv@Base 2.0.1
 _ZNK6KGAPI211AccountInfo6genderEv@Base 2.0.1
 _ZNK6KGAPI211AccountInfo6localeEv@Base 2.0.1
 _ZNK6KGAPI211AccountInfo8birthdayEv@Base 2.0.1
 _ZNK6KGAPI211AccountInfo8photoUrlEv@Base 2.0.1
 _ZNK6KGAPI211AccountInfo8timezoneEv@Base 2.0.1
 _ZNK6KGAPI211AccountInfo9givenNameEv@Base 2.0.1
 _ZNK6KGAPI211TaskMoveJob10metaObjectEv@Base 2.0.1
 _ZNK6KGAPI212EventMoveJob10metaObjectEv@Base 2.0.1
 _ZNK6KGAPI212StaticMapUrl10sensorUsedEv@Base 2.0.1
 _ZNK6KGAPI212StaticMapUrl11locationGeoEv@Base 2.0.1
 _ZNK6KGAPI212StaticMapUrl12locationTypeEv@Base 2.0.1
 _ZNK6KGAPI212StaticMapUrl14locationStringEv@Base 2.0.1
 _ZNK6KGAPI212StaticMapUrl15locationAddressEv@Base 2.0.1
 _ZNK6KGAPI212StaticMapUrl18visibleLocationGeoEv@Base 2.0.1
 _ZNK6KGAPI212StaticMapUrl19visibleLocationTypeEv@Base 2.0.1
 _ZNK6KGAPI212StaticMapUrl21visibleLocationStringEv@Base 2.0.1
 _ZNK6KGAPI212StaticMapUrl22visibleLocationAddressEv@Base 2.0.1
 _ZNK6KGAPI212StaticMapUrl3urlEv@Base 2.0.1
 _ZNK6KGAPI212StaticMapUrl4sizeEv@Base 2.0.1
 _ZNK6KGAPI212StaticMapUrl5pathsEv@Base 2.0.1
 _ZNK6KGAPI212StaticMapUrl5scaleEv@Base 2.0.1
 _ZNK6KGAPI212StaticMapUrl6formatEv@Base 2.0.1
 _ZNK6KGAPI212StaticMapUrl7isValidEv@Base 2.0.1
 _ZNK6KGAPI212StaticMapUrl7mapTypeEv@Base 2.0.1
 _ZNK6KGAPI212StaticMapUrl7markersEv@Base 2.0.1
 _ZNK6KGAPI212StaticMapUrl9zoomLevelEv@Base 2.0.1
 _ZNK6KGAPI212TaskFetchJob10metaObjectEv@Base 2.0.1
 _ZNK6KGAPI212TaskFetchJob12completedMaxEv@Base 2.0.1
 _ZNK6KGAPI212TaskFetchJob12completedMinEv@Base 2.0.1
 _ZNK6KGAPI212TaskFetchJob12fetchDeletedEv@Base 2.0.1
 _ZNK6KGAPI212TaskFetchJob14fetchCompletedEv@Base 2.0.1
 _ZNK6KGAPI212TaskFetchJob6dueMaxEv@Base 2.0.1
 _ZNK6KGAPI212TaskFetchJob6dueMinEv@Base 2.0.1
 _ZNK6KGAPI213ContactsGroup13isSystemGroupEv@Base 2.0.1
 _ZNK6KGAPI213ContactsGroup2idEv@Base 2.0.1
 _ZNK6KGAPI213ContactsGroup5titleEv@Base 2.0.1
 _ZNK6KGAPI213ContactsGroup7contentEv@Base 2.0.1
 _ZNK6KGAPI213ContactsGroup7updatedEv@Base 2.0.1
 _ZNK6KGAPI213EventFetchJob10metaObjectEv@Base 2.0.1
 _ZNK6KGAPI213EventFetchJob6filterEv@Base 2.0.1
 _ZNK6KGAPI213EventFetchJob7timeMaxEv@Base 2.0.1
 _ZNK6KGAPI213EventFetchJob7timeMinEv@Base 2.0.1
 _ZNK6KGAPI213StaticMapPath12locationTypeEv@Base 2.0.1
 _ZNK6KGAPI213StaticMapPath12locationsGeoEv@Base 2.0.1
 _ZNK6KGAPI213StaticMapPath15locationsStringEv@Base 2.0.1
 _ZNK6KGAPI213StaticMapPath16locationsAddressEv@Base 2.0.1
 _ZNK6KGAPI213StaticMapPath5colorEv@Base 2.0.1
 _ZNK6KGAPI213StaticMapPath6weightEv@Base 2.0.1
 _ZNK6KGAPI213StaticMapPath7isValidEv@Base 2.0.1
 _ZNK6KGAPI213StaticMapPath8toStringEv@Base 2.0.1
 _ZNK6KGAPI213StaticMapPath9fillColorEv@Base 2.0.1
 _ZNK6KGAPI213TaskCreateJob10metaObjectEv@Base 2.0.1
 _ZNK6KGAPI213TaskCreateJob10parentItemEv@Base 2.0.1
 _ZNK6KGAPI213TaskDeleteJob10metaObjectEv@Base 2.0.1
 _ZNK6KGAPI213TaskModifyJob10metaObjectEv@Base 2.0.1
 _ZNK6KGAPI214EventCreateJob10metaObjectEv@Base 2.0.1
 _ZNK6KGAPI214EventDeleteJob10metaObjectEv@Base 2.0.1
 _ZNK6KGAPI214EventModifyJob10metaObjectEv@Base 2.0.1
 _ZNK6KGAPI215ContactFetchJob10metaObjectEv@Base 2.0.1
 _ZNK6KGAPI215ContactFetchJob12fetchDeletedEv@Base 2.0.1
 _ZNK6KGAPI215ContactFetchJob6filterEv@Base 2.0.1
 _ZNK6KGAPI215StaticMapMarker12locationTypeEv@Base 2.0.1
 _ZNK6KGAPI215StaticMapMarker12locationsGeoEv@Base 2.0.1
 _ZNK6KGAPI215StaticMapMarker15locationsStringEv@Base 2.0.1
 _ZNK6KGAPI215StaticMapMarker16locationsAddressEv@Base 2.0.1
 _ZNK6KGAPI215StaticMapMarker4sizeEv@Base 2.0.1
 _ZNK6KGAPI215StaticMapMarker5colorEv@Base 2.0.1
 _ZNK6KGAPI215StaticMapMarker5labelEv@Base 2.0.1
 _ZNK6KGAPI215StaticMapMarker7isValidEv@Base 2.0.1
 _ZNK6KGAPI215StaticMapMarker8toStringEv@Base 2.0.1
 _ZNK6KGAPI216CalendarFetchJob10metaObjectEv@Base 2.0.1
 _ZNK6KGAPI216ContactCreateJob10metaObjectEv@Base 2.0.1
 _ZNK6KGAPI216ContactDeleteJob10metaObjectEv@Base 2.0.1
 _ZNK6KGAPI216ContactModifyJob10metaObjectEv@Base 2.0.1
 _ZNK6KGAPI216LocationFetchJob10metaObjectEv@Base 2.0.1
 _ZNK6KGAPI216LocationFetchJob11granularityEv@Base 2.0.1
 _ZNK6KGAPI216TaskListFetchJob10metaObjectEv@Base 2.0.1
 _ZNK6KGAPI217CalendarCreateJob10metaObjectEv@Base 2.0.1
 _ZNK6KGAPI217CalendarDeleteJob10metaObjectEv@Base 2.0.1
 _ZNK6KGAPI217CalendarModifyJob10metaObjectEv@Base 2.0.1
 _ZNK6KGAPI217LocationCreateJob10metaObjectEv@Base 2.0.1
 _ZNK6KGAPI217LocationDeleteJob10metaObjectEv@Base 2.0.1
 _ZNK6KGAPI217NewTokensFetchJob10metaObjectEv@Base 2.0.1
 _ZNK6KGAPI217NewTokensFetchJob11accessTokenEv@Base 2.0.1
 _ZNK6KGAPI217NewTokensFetchJob12refreshTokenEv@Base 2.0.1
 _ZNK6KGAPI217NewTokensFetchJob9expiresInEv@Base 2.1.0
 _ZNK6KGAPI217TaskListCreateJob10metaObjectEv@Base 2.0.1
 _ZNK6KGAPI217TaskListDeleteJob10metaObjectEv@Base 2.0.1
 _ZNK6KGAPI217TaskListModifyJob10metaObjectEv@Base 2.0.1
 _ZNK6KGAPI219AccountInfoFetchJob10metaObjectEv@Base 2.0.1
 _ZNK6KGAPI220ContactFetchPhotoJob10metaObjectEv@Base 2.0.1
 _ZNK6KGAPI221ContactsGroupFetchJob10metaObjectEv@Base 2.0.1
 _ZNK6KGAPI221StaticMapTileFetchJob10metaObjectEv@Base 2.0.1
 _ZNK6KGAPI221StaticMapTileFetchJob10tilePixmapEv@Base 2.0.1
 _ZNK6KGAPI222ContactsGroupCreateJob10metaObjectEv@Base 2.0.1
 _ZNK6KGAPI222ContactsGroupDeleteJob10metaObjectEv@Base 2.0.1
 _ZNK6KGAPI222ContactsGroupDeleteJob7Private13createRequestERK4QUrl@Base 2.0.1
 _ZNK6KGAPI222ContactsGroupModifyJob10metaObjectEv@Base 2.0.1
 _ZNK6KGAPI223LocationFetchHistoryJob10maxResultsEv@Base 2.0.1
 _ZNK6KGAPI223LocationFetchHistoryJob10metaObjectEv@Base 2.0.1
 _ZNK6KGAPI223LocationFetchHistoryJob11granularityEv@Base 2.0.1
 _ZNK6KGAPI223LocationFetchHistoryJob12maxTimestampEv@Base 2.0.1
 _ZNK6KGAPI223LocationFetchHistoryJob12minTimestampEv@Base 2.0.1
 _ZNK6KGAPI23Job10maxTimeoutEv@Base 2.0.1
 _ZNK6KGAPI23Job10metaObjectEv@Base 2.0.1
 _ZNK6KGAPI23Job11errorStringEv@Base 2.0.1
 _ZNK6KGAPI23Job5errorEv@Base 2.0.1
 _ZNK6KGAPI23Job7accountEv@Base 2.0.1
 _ZNK6KGAPI23Job9isRunningEv@Base 2.0.1
 _ZNK6KGAPI24Task7deletedEv@Base 2.0.1
 _ZNK6KGAPI25Drive10Permission15additionalRolesEv@Base 2.1.0
 _ZNK6KGAPI25Drive10Permission2idEv@Base 2.1.0
 _ZNK6KGAPI25Drive10Permission4nameEv@Base 2.1.0
 _ZNK6KGAPI25Drive10Permission4roleEv@Base 2.1.0
 _ZNK6KGAPI25Drive10Permission4typeEv@Base 2.1.0
 _ZNK6KGAPI25Drive10Permission5valueEv@Base 2.1.0
 _ZNK6KGAPI25Drive10Permission7authKeyEv@Base 2.1.0
 _ZNK6KGAPI25Drive10Permission8selfLinkEv@Base 2.1.0
 _ZNK6KGAPI25Drive10Permission8withLinkEv@Base 2.1.0
 _ZNK6KGAPI25Drive10Permission9photoLinkEv@Base 2.1.0
 _ZNK6KGAPI25Drive11FileCopyJob10metaObjectEv@Base 2.1.0
 _ZNK6KGAPI25Drive11FileCopyJob5filesEv@Base 2.1.0
 _ZNK6KGAPI25Drive12FileFetchJob10metaObjectEv@Base 2.1.0
 _ZNK6KGAPI25Drive12FileFetchJob16updateViewedDateEv@Base 2.1.0
 _ZNK6KGAPI25Drive12FileTouchJob10metaObjectEv@Base 2.1.0
 _ZNK6KGAPI25Drive12FileTrashJob10metaObjectEv@Base 2.1.0
 _ZNK6KGAPI25Drive13AboutFetchJob10metaObjectEv@Base 2.1.0
 _ZNK6KGAPI25Drive13AboutFetchJob13startChangeIdEv@Base 2.1.0
 _ZNK6KGAPI25Drive13AboutFetchJob16maxChangeIdCountEv@Base 2.1.0
 _ZNK6KGAPI25Drive13AboutFetchJob17includeSubscribedEv@Base 2.1.0
 _ZNK6KGAPI25Drive13AboutFetchJob9aboutDataEv@Base 2.1.0
 _ZNK6KGAPI25Drive13FileCreateJob10metaObjectEv@Base 2.1.0
 _ZNK6KGAPI25Drive13FileDeleteJob10metaObjectEv@Base 2.1.0
 _ZNK6KGAPI25Drive13FileModifyJob10metaObjectEv@Base 2.1.0
 _ZNK6KGAPI25Drive13FileModifyJob16updateViewedDateEv@Base 2.1.0
 _ZNK6KGAPI25Drive13FileModifyJob17createNewRevisionEv@Base 2.1.0
 _ZNK6KGAPI25Drive13FileModifyJob18updateModifiedDateEv@Base 2.1.0
 _ZNK6KGAPI25Drive14ChangeFetchJob10maxResultsEv@Base 2.1.0
 _ZNK6KGAPI25Drive14ChangeFetchJob10metaObjectEv@Base 2.1.0
 _ZNK6KGAPI25Drive14ChangeFetchJob13startChangeIdEv@Base 2.1.0
 _ZNK6KGAPI25Drive14ChangeFetchJob14includeDeletedEv@Base 2.1.0
 _ZNK6KGAPI25Drive14ChangeFetchJob17includeSubscribedEv@Base 2.1.0
 _ZNK6KGAPI25Drive14ChildReference2idEv@Base 2.1.0
 _ZNK6KGAPI25Drive14ChildReference8selfLinkEv@Base 2.1.0
 _ZNK6KGAPI25Drive14ChildReference9childLinkEv@Base 2.1.0
 _ZNK6KGAPI25Drive14FileUntrashJob10metaObjectEv@Base 2.1.0
 _ZNK6KGAPI25Drive15ParentReference10parentLinkEv@Base 2.1.0
 _ZNK6KGAPI25Drive15ParentReference2idEv@Base 2.1.0
 _ZNK6KGAPI25Drive15ParentReference6isRootEv@Base 2.1.0
 _ZNK6KGAPI25Drive15ParentReference8selfLinkEv@Base 2.1.0
 _ZNK6KGAPI25Drive16RevisionFetchJob10metaObjectEv@Base 2.1.0
 _ZNK6KGAPI25Drive17RevisionDeleteJob10metaObjectEv@Base 2.1.0
 _ZNK6KGAPI25Drive17RevisionModifyJob10metaObjectEv@Base 2.1.0
 _ZNK6KGAPI25Drive18PermissionFetchJob10metaObjectEv@Base 2.1.0
 _ZNK6KGAPI25Drive19FileAbstractDataJob10metaObjectEv@Base 2.1.0
 _ZNK6KGAPI25Drive19FileAbstractDataJob11ocrLanguageEv@Base 2.1.0
 _ZNK6KGAPI25Drive19FileAbstractDataJob17timedTextLanguageEv@Base 2.1.0
 _ZNK6KGAPI25Drive19FileAbstractDataJob18timedTextTrackNameEv@Base 2.1.0
 _ZNK6KGAPI25Drive19FileAbstractDataJob3ocrEv@Base 2.1.0
 _ZNK6KGAPI25Drive19FileAbstractDataJob6pinnedEv@Base 2.1.0
 _ZNK6KGAPI25Drive19FileAbstractDataJob7convertEv@Base 2.1.0
 _ZNK6KGAPI25Drive19FileFetchContentJob10metaObjectEv@Base 2.1.0
 _ZNK6KGAPI25Drive19FileFetchContentJob4dataEv@Base 2.1.0
 _ZNK6KGAPI25Drive19PermissionCreateJob10metaObjectEv@Base 2.1.0
 _ZNK6KGAPI25Drive19PermissionDeleteJob10metaObjectEv@Base 2.1.0
 _ZNK6KGAPI25Drive19PermissionModifyJob10metaObjectEv@Base 2.1.0
 _ZNK6KGAPI25Drive21FileAbstractModifyJob10metaObjectEv@Base 2.1.0
 _ZNK6KGAPI25Drive21FileAbstractUploadJob10metaObjectEv@Base 2.1.0
 _ZNK6KGAPI25Drive21FileAbstractUploadJob25useContentAsIndexableTextEv@Base 2.1.0
 _ZNK6KGAPI25Drive22ChildReferenceFetchJob10metaObjectEv@Base 2.1.0
 _ZNK6KGAPI25Drive23ChildReferenceCreateJob10metaObjectEv@Base 2.1.0
 _ZNK6KGAPI25Drive23ChildReferenceDeleteJob10metaObjectEv@Base 2.1.0
 _ZNK6KGAPI25Drive23ParentReferenceFetchJob10metaObjectEv@Base 2.1.0
 _ZNK6KGAPI25Drive24ParentReferenceCreateJob10metaObjectEv@Base 2.1.0
 _ZNK6KGAPI25Drive24ParentReferenceDeleteJob10metaObjectEv@Base 2.1.0
 _ZNK6KGAPI25Drive3App10authorizedEv@Base 2.1.0
 _ZNK6KGAPI25Drive3App10objectTypeEv@Base 2.1.0
 _ZNK6KGAPI25Drive3App10productUrlEv@Base 2.1.0
 _ZNK6KGAPI25Drive3App12useByDefaultEv@Base 2.1.0
 _ZNK6KGAPI25Drive3App14supportsCreateEv@Base 2.1.0
 _ZNK6KGAPI25Drive3App14supportsImportEv@Base 2.1.0
 _ZNK6KGAPI25Drive3App16primaryMimeTypesEv@Base 2.1.0
 _ZNK6KGAPI25Drive3App18secondaryMimeTypesEv@Base 2.1.0
 _ZNK6KGAPI25Drive3App21primaryFileExtensionsEv@Base 2.1.0
 _ZNK6KGAPI25Drive3App23secondaryFileExtensionsEv@Base 2.1.0
 _ZNK6KGAPI25Drive3App2idEv@Base 2.1.0
 _ZNK6KGAPI25Drive3App4Icon4sizeEv@Base 2.1.0
 _ZNK6KGAPI25Drive3App4Icon7iconUrlEv@Base 2.1.0
 _ZNK6KGAPI25Drive3App4Icon8categoryEv@Base 2.1.0
 _ZNK6KGAPI25Drive3App4nameEv@Base 2.1.0
 _ZNK6KGAPI25Drive3App5iconsEv@Base 2.1.0
 _ZNK6KGAPI25Drive3App9installedEv@Base 2.1.0
 _ZNK6KGAPI25Drive4File10ownerNamesEv@Base 2.1.0
 _ZNK6KGAPI25Drive4File11createdDateEv@Base 2.1.0
 _ZNK6KGAPI25Drive4File11descriptionEv@Base 2.1.0
 _ZNK6KGAPI25Drive4File11downloadUrlEv@Base 2.1.0
 _ZNK6KGAPI25Drive4File11exportLinksEv@Base 2.1.0
 _ZNK6KGAPI25Drive4File11md5ChecksumEv@Base 2.1.0
 _ZNK6KGAPI25Drive4File11webViewLinkEv@Base 2.1.0
 _ZNK6KGAPI25Drive4File12modifiedDateEv@Base 2.1.0
 _ZNK6KGAPI25Drive4File13IndexableText4textEv@Base 2.1.0
 _ZNK6KGAPI25Drive4File13alternateLinkEv@Base 2.1.0
 _ZNK6KGAPI25Drive4File13fileExtensionEv@Base 2.1.0
 _ZNK6KGAPI25Drive4File13thumbnailLinkEv@Base 2.1.0
 _ZNK6KGAPI25Drive4File14quotaBytesUsedEv@Base 2.1.0
 _ZNK6KGAPI25Drive4File14userPermissionEv@Base 2.1.0
 _ZNK6KGAPI25Drive4File14webContentLinkEv@Base 2.1.0
 _ZNK6KGAPI25Drive4File15writersCanShareEv@Base 2.1.0
 _ZNK6KGAPI25Drive4File16modifiedByMeDateEv@Base 2.1.0
 _ZNK6KGAPI25Drive4File16originalFileNameEv@Base 2.1.0
 _ZNK6KGAPI25Drive4File16sharedWithMeDateEv@Base 2.1.0
 _ZNK6KGAPI25Drive4File17explicitlyTrashedEv@Base 2.1.0
 _ZNK6KGAPI25Drive4File17lastModifyingUserEv@Base 2.1.0
 _ZNK6KGAPI25Drive4File18ImageMediaMetadata10cameraMakeEv@Base 2.1.0
 _ZNK6KGAPI25Drive4File18ImageMediaMetadata10colorSpaceEv@Base 2.1.0
 _ZNK6KGAPI25Drive4File18ImageMediaMetadata11cameraModelEv@Base 2.1.0
 _ZNK6KGAPI25Drive4File18ImageMediaMetadata11focalLengthEv@Base 2.1.0
 _ZNK6KGAPI25Drive4File18ImageMediaMetadata12exposureBiasEv@Base 2.1.0
 _ZNK6KGAPI25Drive4File18ImageMediaMetadata12exposureModeEv@Base 2.1.0
 _ZNK6KGAPI25Drive4File18ImageMediaMetadata12exposureTimeEv@Base 2.1.0
 _ZNK6KGAPI25Drive4File18ImageMediaMetadata12meteringModeEv@Base 2.1.0
 _ZNK6KGAPI25Drive4File18ImageMediaMetadata12whiteBalanceEv@Base 2.1.0
 _ZNK6KGAPI25Drive4File18ImageMediaMetadata15subjectDistanceEv@Base 2.1.0
 _ZNK6KGAPI25Drive4File18ImageMediaMetadata16maxApertureValueEv@Base 2.1.0
 _ZNK6KGAPI25Drive4File18ImageMediaMetadata4dateEv@Base 2.1.0
 _ZNK6KGAPI25Drive4File18ImageMediaMetadata4lensEv@Base 2.1.0
 _ZNK6KGAPI25Drive4File18ImageMediaMetadata5widthEv@Base 2.1.0
 _ZNK6KGAPI25Drive4File18ImageMediaMetadata6heightEv@Base 2.1.0
 _ZNK6KGAPI25Drive4File18ImageMediaMetadata6sensorEv@Base 2.1.0
 _ZNK6KGAPI25Drive4File18ImageMediaMetadata8Location8altitudeEv@Base 2.1.0
 _ZNK6KGAPI25Drive4File18ImageMediaMetadata8Location8latitudeEv@Base 2.1.0
 _ZNK6KGAPI25Drive4File18ImageMediaMetadata8Location9longitudeEv@Base 2.1.0
 _ZNK6KGAPI25Drive4File18ImageMediaMetadata8apertureEv@Base 2.1.0
 _ZNK6KGAPI25Drive4File18ImageMediaMetadata8isoSpeedEv@Base 2.1.0
 _ZNK6KGAPI25Drive4File18ImageMediaMetadata8locationEv@Base 2.1.0
 _ZNK6KGAPI25Drive4File18ImageMediaMetadata8rotationEv@Base 2.1.0
 _ZNK6KGAPI25Drive4File18ImageMediaMetadata9flashUsedEv@Base 2.1.0
 _ZNK6KGAPI25Drive4File18imageMediaMetadataEv@Base 2.1.0
 _ZNK6KGAPI25Drive4File18lastViewedByMeDateEv@Base 2.1.0
 _ZNK6KGAPI25Drive4File21lastModifyingUserNameEv@Base 2.1.0
 _ZNK6KGAPI25Drive4File2idEv@Base 2.1.0
 _ZNK6KGAPI25Drive4File5titleEv@Base 2.1.0
 _ZNK6KGAPI25Drive4File6Labels10restrictedEv@Base 2.1.0
 _ZNK6KGAPI25Drive4File6Labels6hiddenEv@Base 2.1.0
 _ZNK6KGAPI25Drive4File6Labels6viewedEv@Base 2.1.0
 _ZNK6KGAPI25Drive4File6Labels7starredEv@Base 2.1.0
 _ZNK6KGAPI25Drive4File6Labels7trashedEv@Base 2.1.0
 _ZNK6KGAPI25Drive4File6labelsEv@Base 2.1.0
 _ZNK6KGAPI25Drive4File6ownersEv@Base 2.1.0
 _ZNK6KGAPI25Drive4File6sharedEv@Base 2.1.0
 _ZNK6KGAPI25Drive4File7parentsEv@Base 2.1.0
 _ZNK6KGAPI25Drive4File8editableEv@Base 2.1.0
 _ZNK6KGAPI25Drive4File8fileSizeEv@Base 2.1.0
 _ZNK6KGAPI25Drive4File8iconLinkEv@Base 2.1.0
 _ZNK6KGAPI25Drive4File8isFolderEv@Base 2.1.0
 _ZNK6KGAPI25Drive4File8mimeTypeEv@Base 2.1.0
 _ZNK6KGAPI25Drive4File8selfLinkEv@Base 2.1.0
 _ZNK6KGAPI25Drive4File9Thumbnail5imageEv@Base 2.1.0
 _ZNK6KGAPI25Drive4File9Thumbnail8mimeTypeEv@Base 2.1.0
 _ZNK6KGAPI25Drive4File9embedLinkEv@Base 2.1.0
 _ZNK6KGAPI25Drive4File9thumbnailEv@Base 2.1.0
 _ZNK6KGAPI25Drive4User10pictureUrlEv@Base 2.1.0
 _ZNK6KGAPI25Drive4User11displayNameEv@Base 2.1.0
 _ZNK6KGAPI25Drive4User12permissionIdEv@Base 2.1.0
 _ZNK6KGAPI25Drive4User19isAuthenticatedUserEv@Base 2.1.0
 _ZNK6KGAPI25Drive5About12permissionIdEv@Base 2.1.0
 _ZNK6KGAPI25Drive5About12rootFolderIdEv@Base 2.1.0
 _ZNK6KGAPI25Drive5About13MaxUploadSize4sizeEv@Base 2.1.0
 _ZNK6KGAPI25Drive5About13MaxUploadSize4typeEv@Base 2.1.0
 _ZNK6KGAPI25Drive5About13exportFormatsEv@Base 2.1.0
 _ZNK6KGAPI25Drive5About13importFormatsEv@Base 2.1.0
 _ZNK6KGAPI25Drive5About14maxUploadSizesEv@Base 2.1.0
 _ZNK6KGAPI25Drive5About14quotaBytesUsedEv@Base 2.1.0
 _ZNK6KGAPI25Drive5About15largestChangeIdEv@Base 2.1.0
 _ZNK6KGAPI25Drive5About15quotaBytesTotalEv@Base 2.1.0
 _ZNK6KGAPI25Drive5About18AdditionalRoleInfo4typeEv@Base 2.1.0
 _ZNK6KGAPI25Drive5About18AdditionalRoleInfo7RoleSet11primaryRoleEv@Base 2.1.0
 _ZNK6KGAPI25Drive5About18AdditionalRoleInfo7RoleSet15additionalRolesEv@Base 2.1.0
 _ZNK6KGAPI25Drive5About18AdditionalRoleInfo8roleSetsEv@Base 2.1.0
 _ZNK6KGAPI25Drive5About18additionalRoleInfoEv@Base 2.1.0
 _ZNK6KGAPI25Drive5About18remainingChangeIdsEv@Base 2.1.0
 _ZNK6KGAPI25Drive5About19domainSharingPolicyEv@Base 2.1.0
 _ZNK6KGAPI25Drive5About21isCurrentAppInstalledEv@Base 2.1.0
 _ZNK6KGAPI25Drive5About21quotaBytesUsedInTrashEv@Base 2.1.0
 _ZNK6KGAPI25Drive5About23quotaBytesUserAggregateEv@Base 2.1.0
 _ZNK6KGAPI25Drive5About4nameEv@Base 2.1.0
 _ZNK6KGAPI25Drive5About4userEv@Base 2.1.0
 _ZNK6KGAPI25Drive5About6Format6sourceEv@Base 2.1.0
 _ZNK6KGAPI25Drive5About6Format7targetsEv@Base 2.1.0
 _ZNK6KGAPI25Drive5About7Feature11featureNameEv@Base 2.1.0
 _ZNK6KGAPI25Drive5About7Feature11featureRateEv@Base 2.1.0
 _ZNK6KGAPI25Drive5About8featuresEv@Base 2.1.0
 _ZNK6KGAPI25Drive5About8selfLinkEv@Base 2.1.0
 _ZNK6KGAPI25Drive6Change2idEv@Base 2.1.0
 _ZNK6KGAPI25Drive6Change4fileEv@Base 2.1.0
 _ZNK6KGAPI25Drive6Change6fileIdEv@Base 2.1.0
 _ZNK6KGAPI25Drive6Change7deletedEv@Base 2.1.0
 _ZNK6KGAPI25Drive6Change8selfLinkEv@Base 2.1.0
 _ZNK6KGAPI25Drive8Revision11downloadUrlEv@Base 2.1.0
 _ZNK6KGAPI25Drive8Revision11exportLinksEv@Base 2.1.0
 _ZNK6KGAPI25Drive8Revision11md5ChecksumEv@Base 2.1.0
 _ZNK6KGAPI25Drive8Revision11publishAutoEv@Base 2.1.0
 _ZNK6KGAPI25Drive8Revision12modifiedDateEv@Base 2.1.0
 _ZNK6KGAPI25Drive8Revision13publishedLinkEv@Base 2.1.0
 _ZNK6KGAPI25Drive8Revision16originalFilenameEv@Base 2.1.0
 _ZNK6KGAPI25Drive8Revision17lastModifyingUserEv@Base 2.1.0
 _ZNK6KGAPI25Drive8Revision21lastModifyingUserNameEv@Base 2.1.0
 _ZNK6KGAPI25Drive8Revision22publishedOutsideDomainEv@Base 2.1.0
 _ZNK6KGAPI25Drive8Revision2idEv@Base 2.1.0
 _ZNK6KGAPI25Drive8Revision6pinnedEv@Base 2.1.0
 _ZNK6KGAPI25Drive8Revision8fileSizeEv@Base 2.1.0
 _ZNK6KGAPI25Drive8Revision8mimeTypeEv@Base 2.1.0
 _ZNK6KGAPI25Drive8Revision8selfLinkEv@Base 2.1.0
 _ZNK6KGAPI25Drive8Revision9publishedEv@Base 2.1.0
 _ZNK6KGAPI25Event19useDefaultRemindersEv@Base 2.0.1
 _ZNK6KGAPI25Event7deletedEv@Base 2.0.1
 _ZNK6KGAPI26Object4etagEv@Base 2.0.1
 _ZNK6KGAPI27Account11accessTokenEv@Base 2.0.1
 _ZNK6KGAPI27Account11accountNameEv@Base 2.0.1
 _ZNK6KGAPI27Account12refreshTokenEv@Base 2.0.1
 _ZNK6KGAPI27Account14expireDateTimeEv@Base 2.1.0
 _ZNK6KGAPI27Account6scopesEv@Base 2.0.1
 _ZNK6KGAPI27AuthJob10metaObjectEv@Base 2.0.1
 _ZNK6KGAPI27AuthJob7accountEv@Base 2.0.1
 _ZNK6KGAPI27Blogger12BlogFetchJob10metaObjectEv@Base 2.1.80
 _ZNK6KGAPI27Blogger12PageFetchJob10metaObjectEv@Base 2.1.80
 _ZNK6KGAPI27Blogger12PageFetchJob12fetchContentEv@Base 2.1.80
 _ZNK6KGAPI27Blogger12PageFetchJob12statusFilterEv@Base 2.1.80
 _ZNK6KGAPI27Blogger12PostFetchJob10maxResultsEv@Base 2.1.80
 _ZNK6KGAPI27Blogger12PostFetchJob10metaObjectEv@Base 2.1.80
 _ZNK6KGAPI27Blogger12PostFetchJob11fetchBodiesEv@Base 2.1.80
 _ZNK6KGAPI27Blogger12PostFetchJob11fetchImagesEv@Base 2.1.80
 _ZNK6KGAPI27Blogger12PostFetchJob12filterLabelsEv@Base 2.1.80
 _ZNK6KGAPI27Blogger12PostFetchJob12statusFilterEv@Base 2.1.80
 _ZNK6KGAPI27Blogger12PostFetchJob7endDateEv@Base 2.1.80
 _ZNK6KGAPI27Blogger12PostFetchJob9startDateEv@Base 2.1.80
 _ZNK6KGAPI27Blogger13PageCreateJob10metaObjectEv@Base 2.1.80
 _ZNK6KGAPI27Blogger13PageDeleteJob10metaObjectEv@Base 2.1.80
 _ZNK6KGAPI27Blogger13PageModifyJob10metaObjectEv@Base 2.1.80
 _ZNK6KGAPI27Blogger13PostCreateJob10metaObjectEv@Base 2.1.80
 _ZNK6KGAPI27Blogger13PostDeleteJob10metaObjectEv@Base 2.1.80
 _ZNK6KGAPI27Blogger13PostModifyJob10metaObjectEv@Base 2.1.80
 _ZNK6KGAPI27Blogger13PostSearchJob10metaObjectEv@Base 2.1.80
 _ZNK6KGAPI27Blogger13PostSearchJob11fetchBodiesEv@Base 2.1.80
 _ZNK6KGAPI27Blogger14PostPublishJob10metaObjectEv@Base 2.1.80
 _ZNK6KGAPI27Blogger14PostPublishJob4itemEv@Base 2.1.80
 _ZNK6KGAPI27Blogger15CommentFetchJob10maxResultsEv@Base 2.1.80
 _ZNK6KGAPI27Blogger15CommentFetchJob10metaObjectEv@Base 2.1.80
 _ZNK6KGAPI27Blogger15CommentFetchJob11fetchBodiesEv@Base 2.1.80
 _ZNK6KGAPI27Blogger15CommentFetchJob7endDateEv@Base 2.1.80
 _ZNK6KGAPI27Blogger15CommentFetchJob9startDateEv@Base 2.1.80
 _ZNK6KGAPI27Blogger16CommentDeleteJob10metaObjectEv@Base 2.1.80
 _ZNK6KGAPI27Blogger17CommentApproveJob10metaObjectEv@Base 2.1.80
 _ZNK6KGAPI27Blogger23CommentDeleteContentJob10metaObjectEv@Base 2.1.80
 _ZNK6KGAPI27Blogger4Blog10pagesCountEv@Base 2.1.80
 _ZNK6KGAPI27Blogger4Blog10postsCountEv@Base 2.1.80
 _ZNK6KGAPI27Blogger4Blog11descriptionEv@Base 2.1.80
 _ZNK6KGAPI27Blogger4Blog14customMetaDataEv@Base 2.1.80
 _ZNK6KGAPI27Blogger4Blog15languageVariantEv@Base 2.1.80
 _ZNK6KGAPI27Blogger4Blog2idEv@Base 2.1.80
 _ZNK6KGAPI27Blogger4Blog4nameEv@Base 2.1.80
 _ZNK6KGAPI27Blogger4Blog7countryEv@Base 2.1.80
 _ZNK6KGAPI27Blogger4Blog7updatedEv@Base 2.1.80
 _ZNK6KGAPI27Blogger4Blog8langaugeEv@Base 2.1.80
 _ZNK6KGAPI27Blogger4Blog9publishedEv@Base 2.1.80
 _ZNK6KGAPI27Blogger4Page10authorNameEv@Base 2.1.80
 _ZNK6KGAPI27Blogger4Page14authorImageUrlEv@Base 2.1.80
 _ZNK6KGAPI27Blogger4Page2idEv@Base 2.1.80
 _ZNK6KGAPI27Blogger4Page3urlEv@Base 2.1.80
 _ZNK6KGAPI27Blogger4Page5titleEv@Base 2.1.80
 _ZNK6KGAPI27Blogger4Page6blogIdEv@Base 2.1.80
 _ZNK6KGAPI27Blogger4Page6statusEv@Base 2.1.80
 _ZNK6KGAPI27Blogger4Page7contentEv@Base 2.1.80
 _ZNK6KGAPI27Blogger4Page7updatedEv@Base 2.1.80
 _ZNK6KGAPI27Blogger4Page8authorIdEv@Base 2.1.80
 _ZNK6KGAPI27Blogger4Page9authorUrlEv@Base 2.1.80
 _ZNK6KGAPI27Blogger4Page9publishedEv@Base 2.1.80
 _ZNK6KGAPI27Blogger4Post10authorNameEv@Base 2.1.80
 _ZNK6KGAPI27Blogger4Post13commentsCountEv@Base 2.1.80
 _ZNK6KGAPI27Blogger4Post14authorImageUrlEv@Base 2.1.80
 _ZNK6KGAPI27Blogger4Post14customMetaDataEv@Base 2.1.80
 _ZNK6KGAPI27Blogger4Post3urlEv@Base 2.1.80
 _ZNK6KGAPI27Blogger4Post5titleEv@Base 2.1.80
 _ZNK6KGAPI27Blogger4Post6imagesEv@Base 2.1.80
 _ZNK6KGAPI27Blogger4Post6labelsEv@Base 2.1.80
 _ZNK6KGAPI27Blogger4Post6statusEv@Base 2.1.80
 _ZNK6KGAPI27Blogger4Post7contentEv@Base 2.1.80
 _ZNK6KGAPI27Blogger4Post7updatedEv@Base 2.1.80
 _ZNK6KGAPI27Blogger4Post8authorIdEv@Base 2.1.80
 _ZNK6KGAPI27Blogger4Post8latitudeEv@Base 2.1.80
 _ZNK6KGAPI27Blogger4Post8locationEv@Base 2.1.80
 _ZNK6KGAPI27Blogger4Post9authorUrlEv@Base 2.1.80
 _ZNK6KGAPI27Blogger4Post9longitudeEv@Base 2.1.80
 _ZNK6KGAPI27Blogger4Post9publishedEv@Base 2.1.80
 _ZNK6KGAPI27Blogger7Comment10authorNameEv@Base 2.1.80
 _ZNK6KGAPI27Blogger7Comment14authorImageUrlEv@Base 2.1.80
 _ZNK6KGAPI27Blogger7Comment2idEv@Base 2.1.80
 _ZNK6KGAPI27Blogger7Comment6blogIdEv@Base 2.1.80
 _ZNK6KGAPI27Blogger7Comment6postIdEv@Base 2.1.80
 _ZNK6KGAPI27Blogger7Comment6statusEv@Base 2.1.80
 _ZNK6KGAPI27Blogger7Comment7contentEv@Base 2.1.80
 _ZNK6KGAPI27Blogger7Comment7updatedEv@Base 2.1.80
 _ZNK6KGAPI27Blogger7Comment8authorIdEv@Base 2.1.80
 _ZNK6KGAPI27Blogger7Comment9authorUrlEv@Base 2.1.80
 _ZNK6KGAPI27Blogger7Comment9inReplyToEv@Base 2.1.80
 _ZNK6KGAPI27Blogger7Comment9publishedEv@Base 2.1.80
 _ZNK6KGAPI27Contact10professionEv@Base 2.0.1
 _ZNK6KGAPI27Contact11anniversaryEv@Base 2.0.1
 _ZNK6KGAPI27Contact11spousesNameEv@Base 2.0.1
 _ZNK6KGAPI27Contact12managersNameEv@Base 2.0.1
 _ZNK6KGAPI27Contact14assistantsNameEv@Base 2.0.1
 _ZNK6KGAPI27Contact14groupIsDeletedERK7QString@Base 2.0.1
 _ZNK6KGAPI27Contact6groupsEv@Base 2.0.1
 _ZNK6KGAPI27Contact6officeEv@Base 2.0.1
 _ZNK6KGAPI27Contact7createdEv@Base 2.0.1
 _ZNK6KGAPI27Contact7deletedEv@Base 2.0.1
 _ZNK6KGAPI27Contact7updatedEv@Base 2.0.1
 _ZNK6KGAPI27Contact8blogFeedEv@Base 2.0.1
 _ZNK6KGAPI27Contact8photoUrlEv@Base 2.0.1
 _ZNK6KGAPI28Calendar15backgroundColorEv@Base 2.1.0
 _ZNK6KGAPI28Calendar15foregroundColorEv@Base 2.1.0
 _ZNK6KGAPI28Calendar16defaultRemindersEv@Base 2.0.1
 _ZNK6KGAPI28Calendar3uidEv@Base 2.0.1
 _ZNK6KGAPI28Calendar5titleEv@Base 2.0.1
 _ZNK6KGAPI28Calendar7detailsEv@Base 2.0.1
 _ZNK6KGAPI28Calendar8editableEv@Base 2.0.1
 _ZNK6KGAPI28Calendar8locationEv@Base 2.0.1
 _ZNK6KGAPI28Calendar8timezoneEv@Base 2.0.1
 _ZNK6KGAPI28FetchJob10metaObjectEv@Base 2.0.1
 _ZNK6KGAPI28FetchJob5itemsEv@Base 2.0.1
 _ZNK6KGAPI28Location16altitudeAccuracyEv@Base 2.0.1
 _ZNK6KGAPI28Location5speedEv@Base 2.0.1
 _ZNK6KGAPI28Location7headingEv@Base 2.0.1
 _ZNK6KGAPI28Location8accuracyEv@Base 2.0.1
 _ZNK6KGAPI28Location8altitudeEv@Base 2.0.1
 _ZNK6KGAPI28Location9timestampEv@Base 2.0.1
 _ZNK6KGAPI28Reminder11startOffsetEv@Base 2.0.1
 _ZNK6KGAPI28Reminder4typeEv@Base 2.0.1
 _ZNK6KGAPI28Reminder7toAlarmEPN8KCalCore9IncidenceE@Base 2.0.1
 _ZNK6KGAPI28TaskList3uidEv@Base 2.0.1
 _ZNK6KGAPI28TaskList5titleEv@Base 2.0.1
 _ZNK6KGAPI29CreateJob10metaObjectEv@Base 2.0.1
 _ZNK6KGAPI29CreateJob5itemsEv@Base 2.0.1
 _ZNK6KGAPI29DeleteJob10metaObjectEv@Base 2.0.1
 _ZNK6KGAPI29ModifyJob10metaObjectEv@Base 2.0.1
 _ZTIN4KABC3GeoE@Base 2.0.1
 _ZTIN4KABC9AddresseeE@Base 2.0.1
 _ZTIN6KGAPI210AuthWidget7PrivateE@Base 2.0.1
 _ZTIN6KGAPI210AuthWidgetE@Base 2.0.1
 _ZTIN6KGAPI211AccountInfoE@Base 2.0.1
 _ZTIN6KGAPI211TaskMoveJobE@Base 2.0.1
 _ZTIN6KGAPI212EventMoveJobE@Base 2.0.1
 _ZTIN6KGAPI212StaticMapUrlE@Base 2.0.1
 _ZTIN6KGAPI212TaskFetchJobE@Base 2.0.1
 _ZTIN6KGAPI213ContactsGroupE@Base 2.0.1
 _ZTIN6KGAPI213EventFetchJobE@Base 2.0.1
 _ZTIN6KGAPI213TaskCreateJobE@Base 2.0.1
 _ZTIN6KGAPI213TaskDeleteJobE@Base 2.0.1
 _ZTIN6KGAPI213TaskModifyJobE@Base 2.0.1
 _ZTIN6KGAPI214EventCreateJobE@Base 2.0.1
 _ZTIN6KGAPI214EventDeleteJobE@Base 2.0.1
 _ZTIN6KGAPI214EventModifyJobE@Base 2.0.1
 _ZTIN6KGAPI215ContactFetchJobE@Base 2.0.1
 _ZTIN6KGAPI216CalendarFetchJobE@Base 2.0.1
 _ZTIN6KGAPI216ContactCreateJobE@Base 2.0.1
 _ZTIN6KGAPI216ContactDeleteJobE@Base 2.0.1
 _ZTIN6KGAPI216ContactModifyJobE@Base 2.0.1
 _ZTIN6KGAPI216LocationFetchJobE@Base 2.0.1
 _ZTIN6KGAPI216TaskListFetchJobE@Base 2.0.1
 _ZTIN6KGAPI217CalendarCreateJobE@Base 2.0.1
 _ZTIN6KGAPI217CalendarDeleteJobE@Base 2.0.1
 _ZTIN6KGAPI217CalendarModifyJobE@Base 2.0.1
 _ZTIN6KGAPI217LocationCreateJobE@Base 2.0.1
 _ZTIN6KGAPI217LocationDeleteJobE@Base 2.0.1
 _ZTIN6KGAPI217NewTokensFetchJobE@Base 2.0.1
 _ZTIN6KGAPI217TaskListCreateJobE@Base 2.0.1
 _ZTIN6KGAPI217TaskListDeleteJobE@Base 2.0.1
 _ZTIN6KGAPI217TaskListModifyJobE@Base 2.0.1
 _ZTIN6KGAPI219AccountInfoFetchJobE@Base 2.0.1
 _ZTIN6KGAPI220ContactFetchPhotoJobE@Base 2.0.1
 _ZTIN6KGAPI221ContactsGroupFetchJobE@Base 2.0.1
 _ZTIN6KGAPI221StaticMapTileFetchJobE@Base 2.0.1
 _ZTIN6KGAPI222ContactsGroupCreateJobE@Base 2.0.1
 _ZTIN6KGAPI222ContactsGroupDeleteJobE@Base 2.0.1
 _ZTIN6KGAPI222ContactsGroupModifyJobE@Base 2.0.1
 _ZTIN6KGAPI223LocationFetchHistoryJobE@Base 2.0.1
 _ZTIN6KGAPI23JobE@Base 2.0.1
 _ZTIN6KGAPI24TaskE@Base 2.0.1
 _ZTIN6KGAPI25Drive10PermissionE@Base 2.1.0
 _ZTIN6KGAPI25Drive11FileCopyJobE@Base 2.1.0
 _ZTIN6KGAPI25Drive12FileFetchJobE@Base 2.1.0
 _ZTIN6KGAPI25Drive12FileTouchJobE@Base 2.1.0
 _ZTIN6KGAPI25Drive12FileTrashJobE@Base 2.1.0
 _ZTIN6KGAPI25Drive13AboutFetchJobE@Base 2.1.0
 _ZTIN6KGAPI25Drive13FileCreateJobE@Base 2.1.0
 _ZTIN6KGAPI25Drive13FileDeleteJobE@Base 2.1.0
 _ZTIN6KGAPI25Drive13FileModifyJobE@Base 2.1.0
 _ZTIN6KGAPI25Drive14ChangeFetchJobE@Base 2.1.0
 _ZTIN6KGAPI25Drive14ChildReferenceE@Base 2.1.0
 _ZTIN6KGAPI25Drive14FileUntrashJobE@Base 2.1.0
 _ZTIN6KGAPI25Drive15ParentReferenceE@Base 2.1.0
 _ZTIN6KGAPI25Drive16RevisionFetchJobE@Base 2.1.0
 _ZTIN6KGAPI25Drive17RevisionDeleteJobE@Base 2.1.0
 _ZTIN6KGAPI25Drive17RevisionModifyJobE@Base 2.1.0
 _ZTIN6KGAPI25Drive18PermissionFetchJobE@Base 2.1.0
 _ZTIN6KGAPI25Drive19FileAbstractDataJobE@Base 2.1.0
 _ZTIN6KGAPI25Drive19FileFetchContentJobE@Base 2.1.0
 _ZTIN6KGAPI25Drive19PermissionCreateJobE@Base 2.1.0
 _ZTIN6KGAPI25Drive19PermissionDeleteJobE@Base 2.1.0
 _ZTIN6KGAPI25Drive19PermissionModifyJobE@Base 2.1.0
 _ZTIN6KGAPI25Drive21FileAbstractModifyJobE@Base 2.1.0
 _ZTIN6KGAPI25Drive21FileAbstractUploadJobE@Base 2.1.0
 _ZTIN6KGAPI25Drive22ChildReferenceFetchJobE@Base 2.1.0
 _ZTIN6KGAPI25Drive23ChildReferenceCreateJobE@Base 2.1.0
 _ZTIN6KGAPI25Drive23ChildReferenceDeleteJobE@Base 2.1.0
 _ZTIN6KGAPI25Drive23ParentReferenceFetchJobE@Base 2.1.0
 _ZTIN6KGAPI25Drive24ParentReferenceCreateJobE@Base 2.1.0
 _ZTIN6KGAPI25Drive24ParentReferenceDeleteJobE@Base 2.1.0
 _ZTIN6KGAPI25Drive3App4IconE@Base 2.1.0
 _ZTIN6KGAPI25Drive3AppE@Base 2.1.0
 _ZTIN6KGAPI25Drive4File13IndexableTextE@Base 2.1.0
 _ZTIN6KGAPI25Drive4File18ImageMediaMetadata8LocationE@Base 2.1.0
 _ZTIN6KGAPI25Drive4File18ImageMediaMetadataE@Base 2.1.0
 _ZTIN6KGAPI25Drive4File6LabelsE@Base 2.1.0
 _ZTIN6KGAPI25Drive4File9ThumbnailE@Base 2.1.0
 _ZTIN6KGAPI25Drive4FileE@Base 2.1.0
 _ZTIN6KGAPI25Drive4UserE@Base 2.1.0
 _ZTIN6KGAPI25Drive5About13MaxUploadSizeE@Base 2.1.0
 _ZTIN6KGAPI25Drive5About18AdditionalRoleInfo7RoleSetE@Base 2.1.0
 _ZTIN6KGAPI25Drive5About18AdditionalRoleInfoE@Base 2.1.0
 _ZTIN6KGAPI25Drive5About6FormatE@Base 2.1.0
 _ZTIN6KGAPI25Drive5About7FeatureE@Base 2.1.0
 _ZTIN6KGAPI25Drive5AboutE@Base 2.1.0
 _ZTIN6KGAPI25Drive6ChangeE@Base 2.1.0
 _ZTIN6KGAPI25Drive8RevisionE@Base 2.1.0
 _ZTIN6KGAPI25EventE@Base 2.0.1
 _ZTIN6KGAPI26ObjectE@Base 2.0.1
 _ZTIN6KGAPI27AccountE@Base 2.0.1
 _ZTIN6KGAPI27AuthJobE@Base 2.0.1
 _ZTIN6KGAPI27Blogger12BlogFetchJobE@Base 2.1.80
 _ZTIN6KGAPI27Blogger12PageFetchJobE@Base 2.1.80
 _ZTIN6KGAPI27Blogger12PostFetchJobE@Base 2.1.80
 _ZTIN6KGAPI27Blogger13PageCreateJobE@Base 2.1.80
 _ZTIN6KGAPI27Blogger13PageDeleteJobE@Base 2.1.80
 _ZTIN6KGAPI27Blogger13PageModifyJobE@Base 2.1.80
 _ZTIN6KGAPI27Blogger13PostCreateJobE@Base 2.1.80
 _ZTIN6KGAPI27Blogger13PostDeleteJobE@Base 2.1.80
 _ZTIN6KGAPI27Blogger13PostModifyJobE@Base 2.1.80
 _ZTIN6KGAPI27Blogger13PostSearchJobE@Base 2.1.80
 _ZTIN6KGAPI27Blogger14PostPublishJobE@Base 2.1.80
 _ZTIN6KGAPI27Blogger15CommentFetchJobE@Base 2.1.80
 _ZTIN6KGAPI27Blogger16CommentDeleteJobE@Base 2.1.80
 _ZTIN6KGAPI27Blogger17CommentApproveJobE@Base 2.1.80
 _ZTIN6KGAPI27Blogger23CommentDeleteContentJobE@Base 2.1.80
 _ZTIN6KGAPI27Blogger4BlogE@Base 2.1.80
 _ZTIN6KGAPI27Blogger4PageE@Base 2.1.80
 _ZTIN6KGAPI27Blogger4PostE@Base 2.1.80
 _ZTIN6KGAPI27Blogger7CommentE@Base 2.1.80
 _ZTIN6KGAPI27ContactE@Base 2.0.1
 _ZTIN6KGAPI28CalendarE@Base 2.0.1
 _ZTIN6KGAPI28FetchJobE@Base 2.0.1
 _ZTIN6KGAPI28LocationE@Base 2.0.1
 _ZTIN6KGAPI28ReminderE@Base 2.0.1
 _ZTIN6KGAPI28TaskListE@Base 2.0.1
 _ZTIN6KGAPI29CreateJobE@Base 2.0.1
 _ZTIN6KGAPI29DeleteJobE@Base 2.0.1
 _ZTIN6KGAPI29ModifyJobE@Base 2.0.1
 _ZTSN4KABC3GeoE@Base 2.0.1
 _ZTSN4KABC9AddresseeE@Base 2.0.1
 _ZTSN6KGAPI210AuthWidget7PrivateE@Base 2.0.1
 _ZTSN6KGAPI210AuthWidgetE@Base 2.0.1
 _ZTSN6KGAPI211AccountInfoE@Base 2.0.1
 _ZTSN6KGAPI211TaskMoveJobE@Base 2.0.1
 _ZTSN6KGAPI212EventMoveJobE@Base 2.0.1
 _ZTSN6KGAPI212StaticMapUrlE@Base 2.0.1
 _ZTSN6KGAPI212TaskFetchJobE@Base 2.0.1
 _ZTSN6KGAPI213ContactsGroupE@Base 2.0.1
 _ZTSN6KGAPI213EventFetchJobE@Base 2.0.1
 _ZTSN6KGAPI213TaskCreateJobE@Base 2.0.1
 _ZTSN6KGAPI213TaskDeleteJobE@Base 2.0.1
 _ZTSN6KGAPI213TaskModifyJobE@Base 2.0.1
 _ZTSN6KGAPI214EventCreateJobE@Base 2.0.1
 _ZTSN6KGAPI214EventDeleteJobE@Base 2.0.1
 _ZTSN6KGAPI214EventModifyJobE@Base 2.0.1
 _ZTSN6KGAPI215ContactFetchJobE@Base 2.0.1
 _ZTSN6KGAPI216CalendarFetchJobE@Base 2.0.1
 _ZTSN6KGAPI216ContactCreateJobE@Base 2.0.1
 _ZTSN6KGAPI216ContactDeleteJobE@Base 2.0.1
 _ZTSN6KGAPI216ContactModifyJobE@Base 2.0.1
 _ZTSN6KGAPI216LocationFetchJobE@Base 2.0.1
 _ZTSN6KGAPI216TaskListFetchJobE@Base 2.0.1
 _ZTSN6KGAPI217CalendarCreateJobE@Base 2.0.1
 _ZTSN6KGAPI217CalendarDeleteJobE@Base 2.0.1
 _ZTSN6KGAPI217CalendarModifyJobE@Base 2.0.1
 _ZTSN6KGAPI217LocationCreateJobE@Base 2.0.1
 _ZTSN6KGAPI217LocationDeleteJobE@Base 2.0.1
 _ZTSN6KGAPI217NewTokensFetchJobE@Base 2.0.1
 _ZTSN6KGAPI217TaskListCreateJobE@Base 2.0.1
 _ZTSN6KGAPI217TaskListDeleteJobE@Base 2.0.1
 _ZTSN6KGAPI217TaskListModifyJobE@Base 2.0.1
 _ZTSN6KGAPI219AccountInfoFetchJobE@Base 2.0.1
 _ZTSN6KGAPI220ContactFetchPhotoJobE@Base 2.0.1
 _ZTSN6KGAPI221ContactsGroupFetchJobE@Base 2.0.1
 _ZTSN6KGAPI221StaticMapTileFetchJobE@Base 2.0.1
 _ZTSN6KGAPI222ContactsGroupCreateJobE@Base 2.0.1
 _ZTSN6KGAPI222ContactsGroupDeleteJobE@Base 2.0.1
 _ZTSN6KGAPI222ContactsGroupModifyJobE@Base 2.0.1
 _ZTSN6KGAPI223LocationFetchHistoryJobE@Base 2.0.1
 _ZTSN6KGAPI23JobE@Base 2.0.1
 _ZTSN6KGAPI24TaskE@Base 2.0.1
 _ZTSN6KGAPI25Drive10PermissionE@Base 2.1.0
 _ZTSN6KGAPI25Drive11FileCopyJobE@Base 2.1.0
 _ZTSN6KGAPI25Drive12FileFetchJobE@Base 2.1.0
 _ZTSN6KGAPI25Drive12FileTouchJobE@Base 2.1.0
 _ZTSN6KGAPI25Drive12FileTrashJobE@Base 2.1.0
 _ZTSN6KGAPI25Drive13AboutFetchJobE@Base 2.1.0
 _ZTSN6KGAPI25Drive13FileCreateJobE@Base 2.1.0
 _ZTSN6KGAPI25Drive13FileDeleteJobE@Base 2.1.0
 _ZTSN6KGAPI25Drive13FileModifyJobE@Base 2.1.0
 _ZTSN6KGAPI25Drive14ChangeFetchJobE@Base 2.1.0
 _ZTSN6KGAPI25Drive14ChildReferenceE@Base 2.1.0
 _ZTSN6KGAPI25Drive14FileUntrashJobE@Base 2.1.0
 _ZTSN6KGAPI25Drive15ParentReferenceE@Base 2.1.0
 _ZTSN6KGAPI25Drive16RevisionFetchJobE@Base 2.1.0
 _ZTSN6KGAPI25Drive17RevisionDeleteJobE@Base 2.1.0
 _ZTSN6KGAPI25Drive17RevisionModifyJobE@Base 2.1.0
 _ZTSN6KGAPI25Drive18PermissionFetchJobE@Base 2.1.0
 _ZTSN6KGAPI25Drive19FileAbstractDataJobE@Base 2.1.0
 _ZTSN6KGAPI25Drive19FileFetchContentJobE@Base 2.1.0
 _ZTSN6KGAPI25Drive19PermissionCreateJobE@Base 2.1.0
 _ZTSN6KGAPI25Drive19PermissionDeleteJobE@Base 2.1.0
 _ZTSN6KGAPI25Drive19PermissionModifyJobE@Base 2.1.0
 _ZTSN6KGAPI25Drive21FileAbstractModifyJobE@Base 2.1.0
 _ZTSN6KGAPI25Drive21FileAbstractUploadJobE@Base 2.1.0
 _ZTSN6KGAPI25Drive22ChildReferenceFetchJobE@Base 2.1.0
 _ZTSN6KGAPI25Drive23ChildReferenceCreateJobE@Base 2.1.0
 _ZTSN6KGAPI25Drive23ChildReferenceDeleteJobE@Base 2.1.0
 _ZTSN6KGAPI25Drive23ParentReferenceFetchJobE@Base 2.1.0
 _ZTSN6KGAPI25Drive24ParentReferenceCreateJobE@Base 2.1.0
 _ZTSN6KGAPI25Drive24ParentReferenceDeleteJobE@Base 2.1.0
 _ZTSN6KGAPI25Drive3App4IconE@Base 2.1.0
 _ZTSN6KGAPI25Drive3AppE@Base 2.1.0
 _ZTSN6KGAPI25Drive4File13IndexableTextE@Base 2.1.0
 _ZTSN6KGAPI25Drive4File18ImageMediaMetadata8LocationE@Base 2.1.0
 _ZTSN6KGAPI25Drive4File18ImageMediaMetadataE@Base 2.1.0
 _ZTSN6KGAPI25Drive4File6LabelsE@Base 2.1.0
 _ZTSN6KGAPI25Drive4File9ThumbnailE@Base 2.1.0
 _ZTSN6KGAPI25Drive4FileE@Base 2.1.0
 _ZTSN6KGAPI25Drive4UserE@Base 2.1.0
 _ZTSN6KGAPI25Drive5About13MaxUploadSizeE@Base 2.1.0
 _ZTSN6KGAPI25Drive5About18AdditionalRoleInfo7RoleSetE@Base 2.1.0
 _ZTSN6KGAPI25Drive5About18AdditionalRoleInfoE@Base 2.1.0
 _ZTSN6KGAPI25Drive5About6FormatE@Base 2.1.0
 _ZTSN6KGAPI25Drive5About7FeatureE@Base 2.1.0
 _ZTSN6KGAPI25Drive5AboutE@Base 2.1.0
 _ZTSN6KGAPI25Drive6ChangeE@Base 2.1.0
 _ZTSN6KGAPI25Drive8RevisionE@Base 2.1.0
 _ZTSN6KGAPI25EventE@Base 2.0.1
 _ZTSN6KGAPI26ObjectE@Base 2.0.1
 _ZTSN6KGAPI27AccountE@Base 2.0.1
 _ZTSN6KGAPI27AuthJobE@Base 2.0.1
 _ZTSN6KGAPI27Blogger12BlogFetchJobE@Base 2.1.80
 _ZTSN6KGAPI27Blogger12PageFetchJobE@Base 2.1.80
 _ZTSN6KGAPI27Blogger12PostFetchJobE@Base 2.1.80
 _ZTSN6KGAPI27Blogger13PageCreateJobE@Base 2.1.80
 _ZTSN6KGAPI27Blogger13PageDeleteJobE@Base 2.1.80
 _ZTSN6KGAPI27Blogger13PageModifyJobE@Base 2.1.80
 _ZTSN6KGAPI27Blogger13PostCreateJobE@Base 2.1.80
 _ZTSN6KGAPI27Blogger13PostDeleteJobE@Base 2.1.80
 _ZTSN6KGAPI27Blogger13PostModifyJobE@Base 2.1.80
 _ZTSN6KGAPI27Blogger13PostSearchJobE@Base 2.1.80
 _ZTSN6KGAPI27Blogger14PostPublishJobE@Base 2.1.80
 _ZTSN6KGAPI27Blogger15CommentFetchJobE@Base 2.1.80
 _ZTSN6KGAPI27Blogger16CommentDeleteJobE@Base 2.1.80
 _ZTSN6KGAPI27Blogger17CommentApproveJobE@Base 2.1.80
 _ZTSN6KGAPI27Blogger23CommentDeleteContentJobE@Base 2.1.80
 _ZTSN6KGAPI27Blogger4BlogE@Base 2.1.80
 _ZTSN6KGAPI27Blogger4PageE@Base 2.1.80
 _ZTSN6KGAPI27Blogger4PostE@Base 2.1.80
 _ZTSN6KGAPI27Blogger7CommentE@Base 2.1.80
 _ZTSN6KGAPI27ContactE@Base 2.0.1
 _ZTSN6KGAPI28CalendarE@Base 2.0.1
 _ZTSN6KGAPI28FetchJobE@Base 2.0.1
 _ZTSN6KGAPI28LocationE@Base 2.0.1
 _ZTSN6KGAPI28ReminderE@Base 2.0.1
 _ZTSN6KGAPI28TaskListE@Base 2.0.1
 _ZTSN6KGAPI29CreateJobE@Base 2.0.1
 _ZTSN6KGAPI29DeleteJobE@Base 2.0.1
 _ZTSN6KGAPI29ModifyJobE@Base 2.0.1
 _ZTVN6KGAPI210AuthWidget7PrivateE@Base 2.0.1
 _ZTVN6KGAPI210AuthWidgetE@Base 2.0.1
 _ZTVN6KGAPI211AccountInfoE@Base 2.0.1
 _ZTVN6KGAPI211TaskMoveJobE@Base 2.0.1
 _ZTVN6KGAPI212EventMoveJobE@Base 2.0.1
 _ZTVN6KGAPI212StaticMapUrlE@Base 2.0.1
 _ZTVN6KGAPI212TaskFetchJobE@Base 2.0.1
 _ZTVN6KGAPI213ContactsGroupE@Base 2.0.1
 _ZTVN6KGAPI213EventFetchJobE@Base 2.0.1
 _ZTVN6KGAPI213TaskCreateJobE@Base 2.0.1
 _ZTVN6KGAPI213TaskDeleteJobE@Base 2.0.1
 _ZTVN6KGAPI213TaskModifyJobE@Base 2.0.1
 _ZTVN6KGAPI214EventCreateJobE@Base 2.0.1
 _ZTVN6KGAPI214EventDeleteJobE@Base 2.0.1
 _ZTVN6KGAPI214EventModifyJobE@Base 2.0.1
 _ZTVN6KGAPI215ContactFetchJobE@Base 2.0.1
 _ZTVN6KGAPI216CalendarFetchJobE@Base 2.0.1
 _ZTVN6KGAPI216ContactCreateJobE@Base 2.0.1
 _ZTVN6KGAPI216ContactDeleteJobE@Base 2.0.1
 _ZTVN6KGAPI216ContactModifyJobE@Base 2.0.1
 _ZTVN6KGAPI216LocationFetchJobE@Base 2.0.1
 _ZTVN6KGAPI216TaskListFetchJobE@Base 2.0.1
 _ZTVN6KGAPI217CalendarCreateJobE@Base 2.0.1
 _ZTVN6KGAPI217CalendarDeleteJobE@Base 2.0.1
 _ZTVN6KGAPI217CalendarModifyJobE@Base 2.0.1
 _ZTVN6KGAPI217LocationCreateJobE@Base 2.0.1
 _ZTVN6KGAPI217LocationDeleteJobE@Base 2.0.1
 _ZTVN6KGAPI217NewTokensFetchJobE@Base 2.0.1
 _ZTVN6KGAPI217TaskListCreateJobE@Base 2.0.1
 _ZTVN6KGAPI217TaskListDeleteJobE@Base 2.0.1
 _ZTVN6KGAPI217TaskListModifyJobE@Base 2.0.1
 _ZTVN6KGAPI219AccountInfoFetchJobE@Base 2.0.1
 _ZTVN6KGAPI220ContactFetchPhotoJobE@Base 2.0.1
 _ZTVN6KGAPI221ContactsGroupFetchJobE@Base 2.0.1
 _ZTVN6KGAPI221StaticMapTileFetchJobE@Base 2.0.1
 _ZTVN6KGAPI222ContactsGroupCreateJobE@Base 2.0.1
 _ZTVN6KGAPI222ContactsGroupDeleteJobE@Base 2.0.1
 _ZTVN6KGAPI222ContactsGroupModifyJobE@Base 2.0.1
 _ZTVN6KGAPI223LocationFetchHistoryJobE@Base 2.0.1
 _ZTVN6KGAPI23JobE@Base 2.0.1
 _ZTVN6KGAPI24TaskE@Base 2.0.1
 _ZTVN6KGAPI25Drive10PermissionE@Base 2.1.0
 _ZTVN6KGAPI25Drive11FileCopyJobE@Base 2.1.0
 _ZTVN6KGAPI25Drive12FileFetchJobE@Base 2.1.0
 _ZTVN6KGAPI25Drive12FileTouchJobE@Base 2.1.0
 _ZTVN6KGAPI25Drive12FileTrashJobE@Base 2.1.0
 _ZTVN6KGAPI25Drive13AboutFetchJobE@Base 2.1.0
 _ZTVN6KGAPI25Drive13FileCreateJobE@Base 2.1.0
 _ZTVN6KGAPI25Drive13FileDeleteJobE@Base 2.1.0
 _ZTVN6KGAPI25Drive13FileModifyJobE@Base 2.1.0
 _ZTVN6KGAPI25Drive14ChangeFetchJobE@Base 2.1.0
 _ZTVN6KGAPI25Drive14ChildReferenceE@Base 2.1.0
 _ZTVN6KGAPI25Drive14FileUntrashJobE@Base 2.1.0
 _ZTVN6KGAPI25Drive15ParentReferenceE@Base 2.1.0
 _ZTVN6KGAPI25Drive16RevisionFetchJobE@Base 2.1.0
 _ZTVN6KGAPI25Drive17RevisionDeleteJobE@Base 2.1.0
 _ZTVN6KGAPI25Drive17RevisionModifyJobE@Base 2.1.0
 _ZTVN6KGAPI25Drive18PermissionFetchJobE@Base 2.1.0
 _ZTVN6KGAPI25Drive19FileAbstractDataJobE@Base 2.1.0
 _ZTVN6KGAPI25Drive19FileFetchContentJobE@Base 2.1.0
 _ZTVN6KGAPI25Drive19PermissionCreateJobE@Base 2.1.0
 _ZTVN6KGAPI25Drive19PermissionDeleteJobE@Base 2.1.0
 _ZTVN6KGAPI25Drive19PermissionModifyJobE@Base 2.1.0
 _ZTVN6KGAPI25Drive21FileAbstractModifyJobE@Base 2.1.0
 _ZTVN6KGAPI25Drive21FileAbstractUploadJobE@Base 2.1.0
 _ZTVN6KGAPI25Drive22ChildReferenceFetchJobE@Base 2.1.0
 _ZTVN6KGAPI25Drive23ChildReferenceCreateJobE@Base 2.1.0
 _ZTVN6KGAPI25Drive23ChildReferenceDeleteJobE@Base 2.1.0
 _ZTVN6KGAPI25Drive23ParentReferenceFetchJobE@Base 2.1.0
 _ZTVN6KGAPI25Drive24ParentReferenceCreateJobE@Base 2.1.0
 _ZTVN6KGAPI25Drive24ParentReferenceDeleteJobE@Base 2.1.0
 _ZTVN6KGAPI25Drive3App4IconE@Base 2.1.0
 _ZTVN6KGAPI25Drive3AppE@Base 2.1.0
 _ZTVN6KGAPI25Drive4File13IndexableTextE@Base 2.1.0
 _ZTVN6KGAPI25Drive4File18ImageMediaMetadata8LocationE@Base 2.1.0
 _ZTVN6KGAPI25Drive4File18ImageMediaMetadataE@Base 2.1.0
 _ZTVN6KGAPI25Drive4File6LabelsE@Base 2.1.0
 _ZTVN6KGAPI25Drive4File9ThumbnailE@Base 2.1.0
 _ZTVN6KGAPI25Drive4FileE@Base 2.1.0
 _ZTVN6KGAPI25Drive4UserE@Base 2.1.0
 _ZTVN6KGAPI25Drive5About13MaxUploadSizeE@Base 2.1.0
 _ZTVN6KGAPI25Drive5About18AdditionalRoleInfo7RoleSetE@Base 2.1.0
 _ZTVN6KGAPI25Drive5About18AdditionalRoleInfoE@Base 2.1.0
 _ZTVN6KGAPI25Drive5About6FormatE@Base 2.1.0
 _ZTVN6KGAPI25Drive5About7FeatureE@Base 2.1.0
 _ZTVN6KGAPI25Drive5AboutE@Base 2.1.0
 _ZTVN6KGAPI25Drive6ChangeE@Base 2.1.0
 _ZTVN6KGAPI25Drive8RevisionE@Base 2.1.0
 _ZTVN6KGAPI25EventE@Base 2.0.1
 _ZTVN6KGAPI26ObjectE@Base 2.0.1
 _ZTVN6KGAPI27AccountE@Base 2.0.1
 _ZTVN6KGAPI27AuthJobE@Base 2.0.1
 _ZTVN6KGAPI27Blogger12BlogFetchJobE@Base 2.1.80
 _ZTVN6KGAPI27Blogger12PageFetchJobE@Base 2.1.80
 _ZTVN6KGAPI27Blogger12PostFetchJobE@Base 2.1.80
 _ZTVN6KGAPI27Blogger13PageCreateJobE@Base 2.1.80
 _ZTVN6KGAPI27Blogger13PageDeleteJobE@Base 2.1.80
 _ZTVN6KGAPI27Blogger13PageModifyJobE@Base 2.1.80
 _ZTVN6KGAPI27Blogger13PostCreateJobE@Base 2.1.80
 _ZTVN6KGAPI27Blogger13PostDeleteJobE@Base 2.1.80
 _ZTVN6KGAPI27Blogger13PostModifyJobE@Base 2.1.80
 _ZTVN6KGAPI27Blogger13PostSearchJobE@Base 2.1.80
 _ZTVN6KGAPI27Blogger14PostPublishJobE@Base 2.1.80
 _ZTVN6KGAPI27Blogger15CommentFetchJobE@Base 2.1.80
 _ZTVN6KGAPI27Blogger16CommentDeleteJobE@Base 2.1.80
 _ZTVN6KGAPI27Blogger17CommentApproveJobE@Base 2.1.80
 _ZTVN6KGAPI27Blogger23CommentDeleteContentJobE@Base 2.1.80
 _ZTVN6KGAPI27Blogger4BlogE@Base 2.1.80
 _ZTVN6KGAPI27Blogger4PageE@Base 2.1.80
 _ZTVN6KGAPI27Blogger4PostE@Base 2.1.80
 _ZTVN6KGAPI27Blogger7CommentE@Base 2.1.80
 _ZTVN6KGAPI27ContactE@Base 2.0.1
 _ZTVN6KGAPI28CalendarE@Base 2.0.1
 _ZTVN6KGAPI28FetchJobE@Base 2.0.1
 _ZTVN6KGAPI28LocationE@Base 2.0.1
 _ZTVN6KGAPI28ReminderE@Base 2.0.1
 _ZTVN6KGAPI28TaskListE@Base 2.0.1
 _ZTVN6KGAPI29CreateJobE@Base 2.0.1
 _ZTVN6KGAPI29DeleteJobE@Base 2.0.1
 _ZTVN6KGAPI29ModifyJobE@Base 2.0.1
 (c++)"non-virtual thunk to KGAPI2::AuthWidget::~AuthWidget()@Base" 2.0.1
 (c++)"non-virtual thunk to KGAPI2::Event::~Event()@Base" 2.0.1
 (c++)"non-virtual thunk to KGAPI2::Task::~Task()@Base" 2.0.1
